(dp0
S'METTS MARK'
p1
(dp2
S'expenses_log'
p3
S'NaN'
p4
sS'to_messages'
p5
I807
sS'deferral_payments'
p6
S'NaN'
p7
sS'bonus_log'
p8
g4
sS'director_fees_log'
p9
g4
sS'restricted_stock_squared'
p10
g4
sS'expenses'
p11
I94299
sS'total_payments_squared'
p12
g4
sS'poi'
p13
I00
sS'deferred_income'
p14
g7
sS'poi_ratio_messages_squared'
p15
F0.7856404958677685
sS'email_address'
p16
S'mark.metts@enron.com'
p17
sS'long_term_incentive'
p18
g7
sS'restricted_stock_log'
p19
g4
sS'restricted_stock_deferred_log'
p20
g4
sS'salary_log'
p21
g4
sS'exercised_stock_options_squared'
p22
g4
sS'deferred_income_squared'
p23
g4
sS'restricted_stock_deferred'
p24
g7
sS'poi_ratio_messages'
p25
F0.8863636363636364
sS'shared_receipt_with_poi'
p26
I702
sS'loan_advances'
p27
g7
sS'from_messages'
p28
I29
sS'other'
p29
I1740
sS'exercised_stock_options_log'
p30
g4
sS'director_fees'
p31
g7
sS'bonus_squared'
p32
g4
sS'total_stock_value_log'
p33
g4
sS'long_term_incentive_squared'
p34
g4
sS'salary_squared'
p35
g4
sS'bonus'
p36
I600000
sS'expenses_squared'
p37
g4
sS'total_stock_value'
p38
I585062
sS'from_poi_to_this_person'
p39
I38
sS'deferral_payments_squared'
p40
g4
sS'deferral_payments_log'
p41
g4
sS'other_log'
p42
g4
sS'from_this_person_to_poi'
p43
I1
sS'restricted_stock_deferred_squared'
p44
g4
sS'total_payments_log'
p45
g4
sS'director_fees_squared'
p46
g4
sS'restricted_stock'
p47
I585062
sS'long_term_incentive_log'
p48
g4
sS'salary'
p49
I365788
sS'total_payments'
p50
I1061827
sS'exercised_stock_options'
p51
g7
sS'loan_advances_squared'
p52
g4
sS'total_stock_value_squared'
p53
g4
sS'other_squared'
p54
g4
sS'loan_advances_log'
p55
g4
sS'deferred_income_log'
p56
g4
ssS'BAXTER JOHN C'
p57
(dp58
S'expenses_log'
p59
g4
sg5
g7
sg6
I1295738
sS'bonus_log'
p60
g4
sS'director_fees_log'
p61
g4
sS'restricted_stock_squared'
p62
g4
sg11
I11200
sS'total_payments_squared'
p63
g4
sg13
I00
sg14
I-1386055
sS'restricted_stock_log'
p64
g4
sg16
g7
sg18
I1586055
sS'exercised_stock_options_squared'
p65
g4
sS'restricted_stock_deferred_log'
p66
g4
sS'salary_log'
p67
g4
sS'deferred_income_squared'
p68
g4
sg24
g7
sg25
g4
sg26
g7
sg27
g7
sg28
g7
sg29
I2660303
sS'exercised_stock_options_log'
p69
g4
sg31
g7
sS'bonus_squared'
p70
g4
sS'total_stock_value_log'
p71
g4
sS'long_term_incentive_squared'
p72
g4
sS'salary_squared'
p73
g4
sg36
I1200000
sS'expenses_squared'
p74
g4
sg38
I10623258
sg39
g7
sS'deferral_payments_squared'
p75
g4
sS'deferral_payments_log'
p76
g4
sS'other_log'
p77
g4
sg43
g7
sS'restricted_stock_deferred_squared'
p78
g4
sS'total_payments_log'
p79
g4
sS'director_fees_squared'
p80
g4
sg47
I3942714
sS'long_term_incentive_log'
p81
g4
sg49
I267102
sg50
I5634343
sg51
I6680544
sS'loan_advances_squared'
p82
g4
sS'total_stock_value_squared'
p83
g4
sS'other_squared'
p84
g4
sS'loan_advances_log'
p85
g4
sS'deferred_income_log'
p86
g4
ssS'ELLIOTT STEVEN'
p87
(dp88
S'expenses_log'
p89
g4
sg5
g7
sg6
g7
sS'bonus_log'
p90
g4
sS'director_fees_log'
p91
g4
sS'restricted_stock_squared'
p92
g4
sg11
I78552
sS'total_payments_squared'
p93
g4
sg13
I00
sg14
I-400729
sS'restricted_stock_log'
p94
g4
sg16
S'steven.elliott@enron.com'
p95
sg18
g7
sS'exercised_stock_options_squared'
p96
g4
sS'restricted_stock_deferred_log'
p97
g4
sS'salary_log'
p98
g4
sS'deferred_income_squared'
p99
g4
sg24
g7
sg25
g4
sg26
g7
sg27
g7
sg28
g7
sg29
I12961
sS'exercised_stock_options_log'
p100
g4
sg31
g7
sS'bonus_squared'
p101
g4
sS'total_stock_value_log'
p102
g4
sS'long_term_incentive_squared'
p103
g4
sS'salary_squared'
p104
g4
sg36
I350000
sS'expenses_squared'
p105
g4
sg38
I6678735
sg39
g7
sS'deferral_payments_squared'
p106
g4
sS'deferral_payments_log'
p107
g4
sS'other_log'
p108
g4
sg43
g7
sS'restricted_stock_deferred_squared'
p109
g4
sS'total_payments_log'
p110
g4
sS'director_fees_squared'
p111
g4
sg47
I1788391
sS'long_term_incentive_log'
p112
g4
sg49
I170941
sg50
I211725
sg51
I4890344
sS'loan_advances_squared'
p113
g4
sS'total_stock_value_squared'
p114
g4
sS'other_squared'
p115
g4
sS'loan_advances_log'
p116
g4
sS'deferred_income_log'
p117
g4
ssS'CORDES WILLIAM R'
p118
(dp119
S'expenses_log'
p120
g4
sg5
I764
sg6
g7
sS'bonus_log'
p121
g4
sS'director_fees_log'
p122
g4
sS'restricted_stock_squared'
p123
g4
sg11
g7
sS'total_payments_squared'
p124
g4
sg13
I00
sg14
g7
sg15
F0.007678818152832394
sg16
S'bill.cordes@enron.com'
p125
sg18
g7
sS'restricted_stock_log'
p126
g4
sS'restricted_stock_deferred_log'
p127
g4
sS'salary_log'
p128
g4
sS'exercised_stock_options_squared'
p129
g4
sS'deferred_income_squared'
p130
g4
sg24
g7
sg25
F0.08762886597938144
sg26
I58
sg27
g7
sg28
I12
sg29
g7
sS'exercised_stock_options_log'
p131
g4
sg31
g7
sS'bonus_squared'
p132
g4
sS'total_stock_value_log'
p133
g4
sS'long_term_incentive_squared'
p134
g4
sS'salary_squared'
p135
g4
sg36
g7
sS'expenses_squared'
p136
g4
sg38
I1038185
sg39
I10
sS'deferral_payments_squared'
p137
g4
sS'deferral_payments_log'
p138
g4
sS'other_log'
p139
g4
sg43
I0
sS'restricted_stock_deferred_squared'
p140
g4
sS'total_payments_log'
p141
g4
sS'director_fees_squared'
p142
g4
sg47
I386335
sS'long_term_incentive_log'
p143
g4
sg49
g7
sg50
g7
sg51
I651850
sS'loan_advances_squared'
p144
g4
sS'total_stock_value_squared'
p145
g4
sS'other_squared'
p146
g4
sS'loan_advances_log'
p147
g4
sS'deferred_income_log'
p148
g4
ssS'HANNON KEVIN P'
p149
(dp150
S'expenses_log'
p151
g4
sg5
I1045
sg6
g7
sS'bonus_log'
p152
g4
sS'director_fees_log'
p153
g4
sS'restricted_stock_squared'
p154
g4
sg11
I34039
sS'total_payments_squared'
p155
g4
sg13
I01
sg14
I-3117011
sg15
F1.0205314290788485
sg16
S'kevin.hannon@enron.com'
p156
sg18
I1617011
sS'restricted_stock_log'
p157
g4
sS'restricted_stock_deferred_log'
p158
g4
sS'salary_log'
p159
g4
sS'exercised_stock_options_squared'
p160
g4
sS'deferred_income_squared'
p161
g4
sg24
g7
sg25
F1.0102135561745589
sg26
I1035
sg27
g7
sg28
I32
sg29
I11350
sS'exercised_stock_options_log'
p162
g4
sg31
g7
sS'bonus_squared'
p163
g4
sS'total_stock_value_log'
p164
g4
sS'long_term_incentive_squared'
p165
g4
sS'salary_squared'
p166
g4
sg36
I1500000
sS'expenses_squared'
p167
g4
sg38
I6391065
sg39
I32
sS'deferral_payments_squared'
p168
g4
sS'deferral_payments_log'
p169
g4
sS'other_log'
p170
g4
sg43
I21
sS'restricted_stock_deferred_squared'
p171
g4
sS'total_payments_log'
p172
g4
sS'director_fees_squared'
p173
g4
sg47
I853064
sS'long_term_incentive_log'
p174
g4
sg49
I243293
sg50
I288682
sg51
I5538001
sS'loan_advances_squared'
p175
g4
sS'total_stock_value_squared'
p176
g4
sS'other_squared'
p177
g4
sS'loan_advances_log'
p178
g4
sS'deferred_income_log'
p179
g4
ssS'MORDAUNT KRISTINA M'
p180
(dp181
S'expenses_log'
p182
g4
sg5
g7
sg6
g7
sS'bonus_log'
p183
g4
sS'director_fees_log'
p184
g4
sS'restricted_stock_squared'
p185
g4
sg11
I35018
sS'total_payments_squared'
p186
g4
sg13
I00
sg14
g7
sS'restricted_stock_log'
p187
g4
sg16
S'kristina.mordaunt@enron.com'
p188
sg18
g7
sS'exercised_stock_options_squared'
p189
g4
sS'restricted_stock_deferred_log'
p190
g4
sS'salary_log'
p191
g4
sS'deferred_income_squared'
p192
g4
sg24
g7
sg25
g4
sg26
g7
sg27
g7
sg28
g7
sg29
I1411
sS'exercised_stock_options_log'
p193
g4
sg31
g7
sS'bonus_squared'
p194
g4
sS'total_stock_value_log'
p195
g4
sS'long_term_incentive_squared'
p196
g4
sS'salary_squared'
p197
g4
sg36
I325000
sS'expenses_squared'
p198
g4
sg38
I208510
sg39
g7
sS'deferral_payments_squared'
p199
g4
sS'deferral_payments_log'
p200
g4
sS'other_log'
p201
g4
sg43
g7
sS'restricted_stock_deferred_squared'
p202
g4
sS'total_payments_log'
p203
g4
sS'director_fees_squared'
p204
g4
sg47
I208510
sS'long_term_incentive_log'
p205
g4
sg49
I267093
sg50
I628522
sg51
g7
sS'loan_advances_squared'
p206
g4
sS'total_stock_value_squared'
p207
g4
sS'other_squared'
p208
g4
sS'loan_advances_log'
p209
g4
sS'deferred_income_log'
p210
g4
ssS'MEYER ROCKFORD G'
p211
(dp212
S'expenses_log'
p213
g4
sg5
I232
sg6
I1848227
sS'bonus_log'
p214
g4
sS'director_fees_log'
p215
g4
sS'restricted_stock_squared'
p216
g4
sg11
g7
sS'total_payments_squared'
p217
g4
sg13
I00
sg14
g7
sg15
F0.007159763313609468
sg16
S'rockford.meyer@enron.com'
p218
sg18
g7
sS'restricted_stock_log'
p219
g4
sS'restricted_stock_deferred_log'
p220
g4
sS'salary_log'
p221
g4
sS'exercised_stock_options_squared'
p222
g4
sS'deferred_income_squared'
p223
g4
sg24
g7
sg25
F0.08461538461538462
sg26
I22
sg27
g7
sg28
I28
sg29
g7
sS'exercised_stock_options_log'
p224
g4
sg31
g7
sS'bonus_squared'
p225
g4
sS'total_stock_value_log'
p226
g4
sS'long_term_incentive_squared'
p227
g4
sS'salary_squared'
p228
g4
sg36
g7
sS'expenses_squared'
p229
g4
sg38
I955873
sg39
I0
sS'deferral_payments_squared'
p230
g4
sS'deferral_payments_log'
p231
g4
sS'other_log'
p232
g4
sg43
I0
sS'restricted_stock_deferred_squared'
p233
g4
sS'total_payments_log'
p234
g4
sS'director_fees_squared'
p235
g4
sg47
I462384
sS'long_term_incentive_log'
p236
g4
sg49
g7
sg50
I1848227
sg51
I493489
sS'loan_advances_squared'
p237
g4
sS'total_stock_value_squared'
p238
g4
sS'other_squared'
p239
g4
sS'loan_advances_log'
p240
g4
sS'deferred_income_log'
p241
g4
ssS'MCMAHON JEFFREY'
p242
(dp243
S'expenses_log'
p244
g4
sg5
I2355
sg6
g7
sS'bonus_log'
p245
g4
sS'director_fees_log'
p246
g4
sS'restricted_stock_squared'
p247
g4
sg11
I137108
sS'total_payments_squared'
p248
g4
sg13
I00
sg14
g7
sg15
F0.9256954261466411
sg16
S'jeffrey.mcmahon@enron.com'
p249
sg18
I694862
sS'restricted_stock_log'
p250
g4
sS'restricted_stock_deferred_log'
p251
g4
sS'salary_log'
p252
g4
sS'exercised_stock_options_squared'
p253
g4
sS'deferred_income_squared'
p254
g4
sg24
g7
sg25
F0.9621306699958385
sg26
I2228
sg27
g7
sg28
I48
sg29
I297353
sS'exercised_stock_options_log'
p255
g4
sg31
g7
sS'bonus_squared'
p256
g4
sS'total_stock_value_log'
p257
g4
sS'long_term_incentive_squared'
p258
g4
sS'salary_squared'
p259
g4
sg36
I2600000
sS'expenses_squared'
p260
g4
sg38
I1662855
sg39
I58
sS'deferral_payments_squared'
p261
g4
sS'deferral_payments_log'
p262
g4
sS'other_log'
p263
g4
sg43
I26
sS'restricted_stock_deferred_squared'
p264
g4
sS'total_payments_log'
p265
g4
sS'director_fees_squared'
p266
g4
sg47
I558801
sS'long_term_incentive_log'
p267
g4
sg49
I370448
sg50
I4099771
sg51
I1104054
sS'loan_advances_squared'
p268
g4
sS'total_stock_value_squared'
p269
g4
sS'other_squared'
p270
g4
sS'loan_advances_log'
p271
g4
sS'deferred_income_log'
p272
g4
ssS'HORTON STANLEY C'
p273
(dp274
S'expenses_log'
p275
g4
sg5
I2350
sg6
I3131860
sS'bonus_log'
p276
g4
sS'director_fees_log'
p277
g4
sS'restricted_stock_squared'
p278
g4
sg11
g7
sS'total_payments_squared'
p279
g4
sg13
I00
sg14
g7
sg15
F0.10955848584556585
sg16
S'stanley.horton@enron.com'
p280
sg18
g7
sS'restricted_stock_log'
p281
g4
sS'restricted_stock_deferred_log'
p282
g4
sS'salary_log'
p283
g4
sS'exercised_stock_options_squared'
p284
g4
sS'deferred_income_squared'
p285
g4
sg24
g7
sg25
F0.33099620216184633
sg26
I1074
sg27
g7
sg28
I1073
sg29
g7
sS'exercised_stock_options_log'
p286
g4
sg31
g7
sS'bonus_squared'
p287
g4
sS'total_stock_value_log'
p288
g4
sS'long_term_incentive_squared'
p289
g4
sS'salary_squared'
p290
g4
sg36
g7
sS'expenses_squared'
p291
g4
sg38
I7256648
sg39
I44
sS'deferral_payments_squared'
p292
g4
sS'deferral_payments_log'
p293
g4
sS'other_log'
p294
g4
sg43
I15
sS'restricted_stock_deferred_squared'
p295
g4
sS'total_payments_log'
p296
g4
sS'director_fees_squared'
p297
g4
sg47
I2046079
sS'long_term_incentive_log'
p298
g4
sg49
g7
sg50
I3131860
sg51
I5210569
sS'loan_advances_squared'
p299
g4
sS'total_stock_value_squared'
p300
g4
sS'other_squared'
p301
g4
sS'loan_advances_log'
p302
g4
sS'deferred_income_log'
p303
g4
ssS'PIPER GREGORY F'
p304
(dp305
S'expenses_log'
p306
g4
sg5
I1238
sg6
I1130036
sS'bonus_log'
p307
g4
sS'director_fees_log'
p308
g4
sS'restricted_stock_squared'
p309
g4
sg11
I43057
sS'total_payments_squared'
p310
g4
sg13
I00
sg14
I-33333
sg15
F0.3397452617751924
sg16
S'greg.piper@enron.com'
p311
sg18
g7
sS'restricted_stock_log'
p312
g4
sS'restricted_stock_deferred_log'
p313
g4
sS'salary_log'
p314
g4
sS'exercised_stock_options_squared'
p315
g4
sS'deferred_income_squared'
p316
g4
sg24
I-409554
sg25
F0.5828767123287671
sg26
I742
sg27
g7
sg28
I222
sg29
I778
sS'exercised_stock_options_log'
p317
g4
sg31
g7
sS'bonus_squared'
p318
g4
sS'total_stock_value_log'
p319
g4
sS'long_term_incentive_squared'
p320
g4
sS'salary_squared'
p321
g4
sg36
I400000
sS'expenses_squared'
p322
g4
sg38
I880290
sg39
I61
sS'deferral_payments_squared'
p323
g4
sS'deferral_payments_log'
p324
g4
sS'other_log'
p325
g4
sg43
I48
sS'restricted_stock_deferred_squared'
p326
g4
sS'total_payments_log'
p327
g4
sS'director_fees_squared'
p328
g4
sg47
I409554
sS'long_term_incentive_log'
p329
g4
sg49
I197091
sg50
I1737629
sg51
I880290
sS'loan_advances_squared'
p330
g4
sS'total_stock_value_squared'
p331
g4
sS'other_squared'
p332
g4
sS'loan_advances_log'
p333
g4
sS'deferred_income_log'
p334
g4
ssS'HUMPHREY GENE E'
p335
(dp336
S'expenses_log'
p337
g4
sg5
I128
sg6
I2964506
sS'bonus_log'
p338
g4
sS'director_fees_log'
p339
g4
sS'restricted_stock_squared'
p340
g4
sg11
I4994
sS'total_payments_squared'
p341
g4
sg13
I00
sg14
g7
sg15
F1.0138406658739596
sg16
S'gene.humphrey@enron.com'
p342
sg18
g7
sS'restricted_stock_log'
p343
g4
sS'restricted_stock_deferred_log'
p344
g4
sS'salary_log'
p345
g4
sS'exercised_stock_options_squared'
p346
g4
sS'deferred_income_squared'
p347
g4
sg24
g7
sg25
F1.006896551724138
sg26
I119
sg27
g7
sg28
I17
sg29
g7
sS'exercised_stock_options_log'
p348
g4
sg31
g7
sS'bonus_squared'
p349
g4
sS'total_stock_value_log'
p350
g4
sS'long_term_incentive_squared'
p351
g4
sS'salary_squared'
p352
g4
sg36
g7
sS'expenses_squared'
p353
g4
sg38
I2282768
sg39
I10
sS'deferral_payments_squared'
p354
g4
sS'deferral_payments_log'
p355
g4
sS'other_log'
p356
g4
sg43
I17
sS'restricted_stock_deferred_squared'
p357
g4
sS'total_payments_log'
p358
g4
sS'director_fees_squared'
p359
g4
sg47
g7
sS'long_term_incentive_log'
p360
g4
sg49
I130724
sg50
I3100224
sg51
I2282768
sS'loan_advances_squared'
p361
g4
sS'total_stock_value_squared'
p362
g4
sS'other_squared'
p363
g4
sS'loan_advances_log'
p364
g4
sS'deferred_income_log'
p365
g4
ssS'UMANOFF ADAM S'
p366
(dp367
S'expenses_log'
p368
g4
sg5
I111
sg6
g7
sS'bonus_log'
p369
g4
sS'director_fees_log'
p370
g4
sS'restricted_stock_squared'
p371
g4
sg11
I53122
sS'total_payments_squared'
p372
g4
sg13
I00
sg14
g7
sg15
F0.168799951925966
sg16
S'adam.umanoff@enron.com'
p373
sg18
g7
sS'restricted_stock_log'
p374
g4
sS'restricted_stock_deferred_log'
p375
g4
sS'salary_log'
p376
g4
sS'exercised_stock_options_squared'
p377
g4
sS'deferred_income_squared'
p378
g4
sg24
g7
sg25
F0.4108527131782946
sg26
I41
sg27
g7
sg28
I18
sg29
g7
sS'exercised_stock_options_log'
p379
g4
sg31
g7
sS'bonus_squared'
p380
g4
sS'total_stock_value_log'
p381
g4
sS'long_term_incentive_squared'
p382
g4
sS'salary_squared'
p383
g4
sg36
I788750
sS'expenses_squared'
p384
g4
sg38
g7
sg39
I12
sS'deferral_payments_squared'
p385
g4
sS'deferral_payments_log'
p386
g4
sS'other_log'
p387
g4
sg43
I0
sS'restricted_stock_deferred_squared'
p388
g4
sS'total_payments_log'
p389
g4
sS'director_fees_squared'
p390
g4
sg47
g7
sS'long_term_incentive_log'
p391
g4
sg49
I288589
sg50
I1130461
sg51
g7
sS'loan_advances_squared'
p392
g4
sS'total_stock_value_squared'
p393
g4
sS'other_squared'
p394
g4
sS'loan_advances_log'
p395
g4
sS'deferred_income_log'
p396
g4
ssS'BLACHMAN JEREMY M'
p397
(dp398
S'expenses_log'
p399
g4
sg5
I2475
sg6
g7
sS'bonus_log'
p400
g4
sS'director_fees_log'
p401
g4
sS'restricted_stock_squared'
p402
g4
sg11
I84208
sS'total_payments_squared'
p403
g4
sg13
I00
sg14
g7
sg15
F0.893704739584586
sg16
S'jeremy.blachman@enron.com'
p404
sg18
I831809
sS'restricted_stock_log'
p405
g4
sS'restricted_stock_deferred_log'
p406
g4
sS'salary_log'
p407
g4
sS'exercised_stock_options_squared'
p408
g4
sS'deferred_income_squared'
p409
g4
sg24
g7
sg25
F0.9453595821615106
sg26
I2326
sg27
g7
sg28
I14
sg29
I272
sS'exercised_stock_options_log'
p410
g4
sg31
g7
sS'bonus_squared'
p411
g4
sS'total_stock_value_log'
p412
g4
sS'long_term_incentive_squared'
p413
g4
sS'salary_squared'
p414
g4
sg36
I850000
sS'expenses_squared'
p415
g4
sg38
I954354
sg39
I25
sS'deferral_payments_squared'
p416
g4
sS'deferral_payments_log'
p417
g4
sS'other_log'
p418
g4
sg43
I2
sS'restricted_stock_deferred_squared'
p419
g4
sS'total_payments_log'
p420
g4
sS'director_fees_squared'
p421
g4
sg47
I189041
sS'long_term_incentive_log'
p422
g4
sg49
I248546
sg50
I2014835
sg51
I765313
sS'loan_advances_squared'
p423
g4
sS'total_stock_value_squared'
p424
g4
sS'other_squared'
p425
g4
sS'loan_advances_log'
p426
g4
sS'deferred_income_log'
p427
g4
ssS'SUNDE MARTIN'
p428
(dp429
S'expenses_log'
p430
g4
sg5
I2647
sg6
g7
sS'bonus_log'
p431
g4
sS'director_fees_log'
p432
g4
sS'restricted_stock_squared'
p433
g4
sg11
g7
sS'total_payments_squared'
p434
g4
sg13
I00
sg14
g7
sg15
F0.9485381577076594
sg16
S'marty.sunde@enron.com'
p435
sg18
I476451
sS'restricted_stock_log'
p436
g4
sS'restricted_stock_deferred_log'
p437
g4
sS'salary_log'
p438
g4
sS'exercised_stock_options_squared'
p439
g4
sS'deferred_income_squared'
p440
g4
sg24
g7
sg25
F0.9739292364990689
sg26
I2565
sg27
g7
sg28
I38
sg29
I111122
sS'exercised_stock_options_log'
p441
g4
sg31
g7
sS'bonus_squared'
p442
g4
sS'total_stock_value_log'
p443
g4
sS'long_term_incentive_squared'
p444
g4
sS'salary_squared'
p445
g4
sg36
I700000
sS'expenses_squared'
p446
g4
sg38
I698920
sg39
I37
sS'deferral_payments_squared'
p447
g4
sS'deferral_payments_log'
p448
g4
sS'other_log'
p449
g4
sg43
I13
sS'restricted_stock_deferred_squared'
p450
g4
sS'total_payments_log'
p451
g4
sS'director_fees_squared'
p452
g4
sg47
I698920
sS'long_term_incentive_log'
p453
g4
sg49
I257486
sg50
I1545059
sg51
g7
sS'loan_advances_squared'
p454
g4
sS'total_stock_value_squared'
p455
g4
sS'other_squared'
p456
g4
sS'loan_advances_log'
p457
g4
sS'deferred_income_log'
p458
g4
ssS'GIBBS DANA R'
p459
(dp460
S'expenses_log'
p461
g4
sg5
I169
sg6
I504610
sS'bonus_log'
p462
g4
sS'director_fees_log'
p463
g4
sS'restricted_stock_squared'
p464
g4
sg11
g7
sS'total_payments_squared'
p465
g4
sg13
I00
sg14
g7
sg15
F0.016147248252495347
sg16
S'dana.gibbs@enron.com'
p466
sg18
I461912
sS'restricted_stock_log'
p467
g4
sS'restricted_stock_deferred_log'
p468
g4
sS'salary_log'
p469
g4
sS'exercised_stock_options_squared'
p470
g4
sS'deferred_income_squared'
p471
g4
sg24
g7
sg25
F0.1270718232044199
sg26
I23
sg27
g7
sg28
I12
sg29
g7
sS'exercised_stock_options_log'
p472
g4
sg31
g7
sS'bonus_squared'
p473
g4
sS'total_stock_value_log'
p474
g4
sS'long_term_incentive_squared'
p475
g4
sS'salary_squared'
p476
g4
sg36
g7
sS'expenses_squared'
p477
g4
sg38
I2218275
sg39
I0
sS'deferral_payments_squared'
p478
g4
sS'deferral_payments_log'
p479
g4
sS'other_log'
p480
g4
sg43
I0
sS'restricted_stock_deferred_squared'
p481
g4
sS'total_payments_log'
p482
g4
sS'director_fees_squared'
p483
g4
sg47
g7
sS'long_term_incentive_log'
p484
g4
sg49
g7
sg50
I966522
sg51
I2218275
sS'loan_advances_squared'
p485
g4
sS'total_stock_value_squared'
p486
g4
sS'other_squared'
p487
g4
sS'loan_advances_log'
p488
g4
sS'deferred_income_log'
p489
g4
ssS'LOWRY CHARLES P'
p490
(dp491
S'expenses_log'
p492
g4
sg5
g7
sg6
g7
sS'bonus_log'
p493
g4
sS'director_fees_log'
p494
g4
sS'restricted_stock_squared'
p495
g4
sg11
g7
sS'total_payments_squared'
p496
g4
sg13
I00
sg14
g7
sS'restricted_stock_log'
p497
g4
sg16
g7
sg18
g7
sS'exercised_stock_options_squared'
p498
g4
sS'restricted_stock_deferred_log'
p499
g4
sS'salary_log'
p500
g4
sS'deferred_income_squared'
p501
g4
sg24
I-153686
sg25
g4
sg26
g7
sg27
g7
sg28
g7
sg29
g7
sS'exercised_stock_options_log'
p502
g4
sg31
g7
sS'bonus_squared'
p503
g4
sS'total_stock_value_log'
p504
g4
sS'long_term_incentive_squared'
p505
g4
sS'salary_squared'
p506
g4
sg36
g7
sS'expenses_squared'
p507
g4
sg38
I372205
sg39
g7
sS'deferral_payments_squared'
p508
g4
sS'deferral_payments_log'
p509
g4
sS'other_log'
p510
g4
sg43
g7
sS'restricted_stock_deferred_squared'
p511
g4
sS'total_payments_log'
p512
g4
sS'director_fees_squared'
p513
g4
sg47
I153686
sS'long_term_incentive_log'
p514
g4
sg49
g7
sg50
g7
sg51
I372205
sS'loan_advances_squared'
p515
g4
sS'total_stock_value_squared'
p516
g4
sS'other_squared'
p517
g4
sS'loan_advances_log'
p518
g4
sS'deferred_income_log'
p519
g4
ssS'COLWELL WESLEY'
p520
(dp521
S'expenses_log'
p522
g4
sg5
I1758
sg6
I27610
sS'bonus_log'
p523
g4
sS'director_fees_log'
p524
g4
sS'restricted_stock_squared'
p525
g4
sg11
I16514
sS'total_payments_squared'
p526
g4
sg13
I01
sg14
I-144062
sg15
F0.5916501588095041
sg16
S'wes.colwell@enron.com'
p527
sg18
g7
sS'restricted_stock_log'
p528
g4
sS'restricted_stock_deferred_log'
p529
g4
sS'salary_log'
p530
g4
sS'exercised_stock_options_squared'
p531
g4
sS'deferred_income_squared'
p532
g4
sg24
g7
sg25
F0.7691879866518354
sg26
I1132
sg27
g7
sg28
I40
sg29
I101740
sS'exercised_stock_options_log'
p533
g4
sg31
g7
sS'bonus_squared'
p534
g4
sS'total_stock_value_log'
p535
g4
sS'long_term_incentive_squared'
p536
g4
sS'salary_squared'
p537
g4
sg36
I1200000
sS'expenses_squared'
p538
g4
sg38
I698242
sg39
I240
sS'deferral_payments_squared'
p539
g4
sS'deferral_payments_log'
p540
g4
sS'other_log'
p541
g4
sg43
I11
sS'restricted_stock_deferred_squared'
p542
g4
sS'total_payments_log'
p543
g4
sS'director_fees_squared'
p544
g4
sg47
I698242
sS'long_term_incentive_log'
p545
g4
sg49
I288542
sg50
I1490344
sg51
g7
sS'loan_advances_squared'
p546
g4
sS'total_stock_value_squared'
p547
g4
sS'other_squared'
p548
g4
sS'loan_advances_log'
p549
g4
sS'deferred_income_log'
p550
g4
ssS'MULLER MARK S'
p551
(dp552
S'expenses_log'
p553
g4
sg5
I136
sg6
I842924
sS'bonus_log'
p554
g4
sS'director_fees_log'
p555
g4
sS'restricted_stock_squared'
p556
g4
sg11
g7
sS'total_payments_squared'
p557
g4
sg13
I00
sg14
I-719000
sg15
F0.6871537396121884
sg16
S's..muller@enron.com'
p558
sg18
I1725545
sS'restricted_stock_log'
p559
g4
sS'restricted_stock_deferred_log'
p560
g4
sS'salary_log'
p561
g4
sS'exercised_stock_options_squared'
p562
g4
sS'deferred_income_squared'
p563
g4
sg24
g7
sg25
F0.8289473684210527
sg26
I114
sg27
g7
sg28
I16
sg29
I947
sS'exercised_stock_options_log'
p564
g4
sg31
g7
sS'bonus_squared'
p565
g4
sS'total_stock_value_log'
p566
g4
sS'long_term_incentive_squared'
p567
g4
sS'salary_squared'
p568
g4
sg36
I1100000
sS'expenses_squared'
p569
g4
sg38
I1416848
sg39
I12
sS'deferral_payments_squared'
p570
g4
sS'deferral_payments_log'
p571
g4
sS'other_log'
p572
g4
sg43
I0
sS'restricted_stock_deferred_squared'
p573
g4
sS'total_payments_log'
p574
g4
sS'director_fees_squared'
p575
g4
sg47
I360528
sS'long_term_incentive_log'
p576
g4
sg49
I251654
sg50
I3202070
sg51
I1056320
sS'loan_advances_squared'
p577
g4
sS'total_stock_value_squared'
p578
g4
sS'other_squared'
p579
g4
sS'loan_advances_log'
p580
g4
sS'deferred_income_log'
p581
g4
ssS'JACKSON CHARLENE R'
p582
(dp583
S'expenses_log'
p584
g4
sg5
I258
sg6
g7
sS'bonus_log'
p585
g4
sS'director_fees_log'
p586
g4
sS'restricted_stock_squared'
p587
g4
sg11
I10181
sS'total_payments_squared'
p588
g4
sg13
I00
sg14
g7
sg15
F0.2629011318917603
sg16
S'charlene.jackson@enron.com'
p589
sg18
g7
sS'restricted_stock_log'
p590
g4
sS'restricted_stock_deferred_log'
p591
g4
sS'salary_log'
p592
g4
sS'exercised_stock_options_squared'
p593
g4
sS'deferred_income_squared'
p594
g4
sg24
g7
sg25
F0.5127388535031847
sg26
I117
sg27
g7
sg28
I56
sg29
I2435
sS'exercised_stock_options_log'
p595
g4
sg31
g7
sS'bonus_squared'
p596
g4
sS'total_stock_value_log'
p597
g4
sS'long_term_incentive_squared'
p598
g4
sS'salary_squared'
p599
g4
sg36
I250000
sS'expenses_squared'
p600
g4
sg38
I725735
sg39
I25
sS'deferral_payments_squared'
p601
g4
sS'deferral_payments_log'
p602
g4
sS'other_log'
p603
g4
sg43
I19
sS'restricted_stock_deferred_squared'
p604
g4
sS'total_payments_log'
p605
g4
sS'director_fees_squared'
p606
g4
sg47
I540672
sS'long_term_incentive_log'
p607
g4
sg49
I288558
sg50
I551174
sg51
I185063
sS'loan_advances_squared'
p608
g4
sS'total_stock_value_squared'
p609
g4
sS'other_squared'
p610
g4
sS'loan_advances_log'
p611
g4
sS'deferred_income_log'
p612
g4
ssS'WESTFAHL RICHARD K'
p613
(dp614
S'expenses_log'
p615
g4
sg5
g7
sg6
g7
sS'bonus_log'
p616
g4
sS'director_fees_log'
p617
g4
sS'restricted_stock_squared'
p618
g4
sg11
I51870
sS'total_payments_squared'
p619
g4
sg13
I00
sg14
I-10800
sS'restricted_stock_log'
p620
g4
sg16
S'dick.westfahl@enron.com'
p621
sg18
I256191
sS'exercised_stock_options_squared'
p622
g4
sS'restricted_stock_deferred_log'
p623
g4
sS'salary_log'
p624
g4
sS'deferred_income_squared'
p625
g4
sg24
g7
sg25
g4
sg26
g7
sg27
g7
sg28
g7
sg29
I401130
sS'exercised_stock_options_log'
p626
g4
sg31
g7
sS'bonus_squared'
p627
g4
sS'total_stock_value_log'
p628
g4
sS'long_term_incentive_squared'
p629
g4
sS'salary_squared'
p630
g4
sg36
g7
sS'expenses_squared'
p631
g4
sg38
I384930
sg39
g7
sS'deferral_payments_squared'
p632
g4
sS'deferral_payments_log'
p633
g4
sS'other_log'
p634
g4
sg43
g7
sS'restricted_stock_deferred_squared'
p635
g4
sS'total_payments_log'
p636
g4
sS'director_fees_squared'
p637
g4
sg47
I384930
sS'long_term_incentive_log'
p638
g4
sg49
I63744
sg50
I762135
sg51
g7
sS'loan_advances_squared'
p639
g4
sS'total_stock_value_squared'
p640
g4
sS'other_squared'
p641
g4
sS'loan_advances_log'
p642
g4
sS'deferred_income_log'
p643
g4
ssS'WALTERS GARETH W'
p644
(dp645
S'expenses_log'
p646
g4
sg5
g7
sg6
I53625
sS'bonus_log'
p647
g4
sS'director_fees_log'
p648
g4
sS'restricted_stock_squared'
p649
g4
sg11
I33785
sS'total_payments_squared'
p650
g4
sg13
I00
sg14
g7
sS'restricted_stock_log'
p651
g4
sg16
g7
sg18
g7
sS'exercised_stock_options_squared'
p652
g4
sS'restricted_stock_deferred_log'
p653
g4
sS'salary_log'
p654
g4
sS'deferred_income_squared'
p655
g4
sg24
g7
sg25
g4
sg26
g7
sg27
g7
sg28
g7
sg29
g7
sS'exercised_stock_options_log'
p656
g4
sg31
g7
sS'bonus_squared'
p657
g4
sS'total_stock_value_log'
p658
g4
sS'long_term_incentive_squared'
p659
g4
sS'salary_squared'
p660
g4
sg36
g7
sS'expenses_squared'
p661
g4
sg38
I1030329
sg39
g7
sS'deferral_payments_squared'
p662
g4
sS'deferral_payments_log'
p663
g4
sS'other_log'
p664
g4
sg43
g7
sS'restricted_stock_deferred_squared'
p665
g4
sS'total_payments_log'
p666
g4
sS'director_fees_squared'
p667
g4
sg47
g7
sS'long_term_incentive_log'
p668
g4
sg49
g7
sg50
I87410
sg51
I1030329
sS'loan_advances_squared'
p669
g4
sS'total_stock_value_squared'
p670
g4
sS'other_squared'
p671
g4
sS'loan_advances_log'
p672
g4
sS'deferred_income_log'
p673
g4
ssS'WALLS JR ROBERT H'
p674
(dp675
S'expenses_log'
p676
g4
sg5
I671
sg6
g7
sS'bonus_log'
p677
g4
sS'director_fees_log'
p678
g4
sS'restricted_stock_squared'
p679
g4
sg11
I50936
sS'total_payments_squared'
p680
g4
sg13
I00
sg14
g7
sg15
F0.08063653483428192
sg16
S'rob.walls@enron.com'
p681
sg18
I540751
sS'restricted_stock_log'
p682
g4
sS'restricted_stock_deferred_log'
p683
g4
sS'salary_log'
p684
g4
sS'exercised_stock_options_squared'
p685
g4
sS'deferred_income_squared'
p686
g4
sg24
g7
sg25
F0.2839657282741738
sg26
I215
sg27
g7
sg28
I146
sg29
I2
sS'exercised_stock_options_log'
p687
g4
sg31
g7
sS'bonus_squared'
p688
g4
sS'total_stock_value_log'
p689
g4
sS'long_term_incentive_squared'
p690
g4
sS'salary_squared'
p691
g4
sg36
I850000
sS'expenses_squared'
p692
g4
sg38
I5898997
sg39
I17
sS'deferral_payments_squared'
p693
g4
sS'deferral_payments_log'
p694
g4
sS'other_log'
p695
g4
sg43
I0
sS'restricted_stock_deferred_squared'
p696
g4
sS'total_payments_log'
p697
g4
sS'director_fees_squared'
p698
g4
sg47
I1552453
sS'long_term_incentive_log'
p699
g4
sg49
I357091
sg50
I1798780
sg51
I4346544
sS'loan_advances_squared'
p700
g4
sS'total_stock_value_squared'
p701
g4
sS'other_squared'
p702
g4
sS'loan_advances_log'
p703
g4
sS'deferred_income_log'
p704
g4
ssS'KITCHEN LOUISE'
p705
(dp706
S'expenses_log'
p707
g4
sg5
I8305
sg6
g7
sS'bonus_log'
p708
g4
sS'director_fees_log'
p709
g4
sS'restricted_stock_squared'
p710
g4
sg11
I5774
sS'total_payments_squared'
p711
g4
sg13
I00
sg14
g7
sg15
F0.1681384154308126
sg16
S'louise.kitchen@enron.com'
p712
sg18
g7
sS'restricted_stock_log'
p713
g4
sS'restricted_stock_deferred_log'
p714
g4
sS'salary_log'
p715
g4
sS'exercised_stock_options_squared'
p716
g4
sS'deferred_income_squared'
p717
g4
sg24
g7
sg25
F0.4100468454101465
sg26
I3669
sg27
g7
sg28
I1728
sg29
I93925
sS'exercised_stock_options_log'
p718
g4
sg31
g7
sS'bonus_squared'
p719
g4
sS'total_stock_value_log'
p720
g4
sS'long_term_incentive_squared'
p721
g4
sS'salary_squared'
p722
g4
sg36
I3100000
sS'expenses_squared'
p723
g4
sg38
I547143
sg39
I251
sS'deferral_payments_squared'
p724
g4
sS'deferral_payments_log'
p725
g4
sS'other_log'
p726
g4
sg43
I194
sS'restricted_stock_deferred_squared'
p727
g4
sS'total_payments_log'
p728
g4
sS'director_fees_squared'
p729
g4
sg47
I466101
sS'long_term_incentive_log'
p730
g4
sg49
I271442
sg50
I3471141
sg51
I81042
sS'loan_advances_squared'
p731
g4
sS'total_stock_value_squared'
p732
g4
sS'other_squared'
p733
g4
sS'loan_advances_log'
p734
g4
sS'deferred_income_log'
p735
g4
ssS'CHAN RONNIE'
p736
(dp737
S'expenses_log'
p738
g4
sg5
g7
sg6
g7
sS'bonus_log'
p739
g4
sS'director_fees_log'
p740
g4
sS'restricted_stock_squared'
p741
g4
sg11
g7
sS'total_payments_squared'
p742
g4
sg13
I00
sg14
I-98784
sS'restricted_stock_log'
p743
g4
sg16
g7
sg18
g7
sS'exercised_stock_options_squared'
p744
g4
sS'restricted_stock_deferred_log'
p745
g4
sS'salary_log'
p746
g4
sS'deferred_income_squared'
p747
g4
sg24
I-32460
sg25
g4
sg26
g7
sg27
g7
sg28
g7
sg29
g7
sS'exercised_stock_options_log'
p748
g4
sg31
I98784
sS'bonus_squared'
p749
g4
sS'total_stock_value_log'
p750
g4
sS'long_term_incentive_squared'
p751
g4
sS'salary_squared'
p752
g4
sg36
g7
sS'expenses_squared'
p753
g4
sg38
g7
sg39
g7
sS'deferral_payments_squared'
p754
g4
sS'deferral_payments_log'
p755
g4
sS'other_log'
p756
g4
sg43
g7
sS'restricted_stock_deferred_squared'
p757
g4
sS'total_payments_log'
p758
g4
sS'director_fees_squared'
p759
g4
sg47
I32460
sS'long_term_incentive_log'
p760
g4
sg49
g7
sg50
g7
sg51
g7
sS'loan_advances_squared'
p761
g4
sS'total_stock_value_squared'
p762
g4
sS'other_squared'
p763
g4
sS'loan_advances_log'
p764
g4
sS'deferred_income_log'
p765
g4
ssS'BELFER ROBERT'
p766
(dp767
S'expenses_log'
p768
g4
sg5
g7
sg6
I-102500
sS'bonus_log'
p769
g4
sS'director_fees_log'
p770
g4
sS'restricted_stock_squared'
p771
g4
sg11
g7
sS'total_payments_squared'
p772
g4
sg13
I00
sg14
g7
sS'restricted_stock_log'
p773
g4
sg16
g7
sg18
g7
sS'exercised_stock_options_squared'
p774
g4
sS'restricted_stock_deferred_log'
p775
g4
sS'salary_log'
p776
g4
sS'deferred_income_squared'
p777
g4
sg24
I44093
sg25
g4
sg26
g7
sg27
g7
sg28
g7
sg29
g7
sS'exercised_stock_options_log'
p778
g4
sg31
I3285
sS'bonus_squared'
p779
g4
sS'total_stock_value_log'
p780
g4
sS'long_term_incentive_squared'
p781
g4
sS'salary_squared'
p782
g4
sg36
g7
sS'expenses_squared'
p783
g4
sg38
I-44093
sg39
g7
sS'deferral_payments_squared'
p784
g4
sS'deferral_payments_log'
p785
g4
sS'other_log'
p786
g4
sg43
g7
sS'restricted_stock_deferred_squared'
p787
g4
sS'total_payments_log'
p788
g4
sS'director_fees_squared'
p789
g4
sg47
g7
sS'long_term_incentive_log'
p790
g4
sg49
g7
sg50
I102500
sg51
I3285
sS'loan_advances_squared'
p791
g4
sS'total_stock_value_squared'
p792
g4
sS'other_squared'
p793
g4
sS'loan_advances_log'
p794
g4
sS'deferred_income_log'
p795
g4
ssS'SHANKMAN JEFFREY A'
p796
(dp797
S'expenses_log'
p798
g4
sg5
I3221
sg6
g7
sS'bonus_log'
p799
g4
sS'director_fees_log'
p800
g4
sS'restricted_stock_squared'
p801
g4
sg11
I178979
sS'total_payments_squared'
p802
g4
sg13
I00
sg14
g7
sg15
F0.1044005954709711
sg16
S'jeffrey.shankman@enron.com'
p803
sg18
I554422
sS'restricted_stock_log'
p804
g4
sS'restricted_stock_deferred_log'
p805
g4
sS'salary_log'
p806
g4
sS'exercised_stock_options_squared'
p807
g4
sS'deferred_income_squared'
p808
g4
sg24
g7
sg25
F0.3231108098949509
sg26
I1730
sg27
g7
sg28
I2681
sg29
I1191
sS'exercised_stock_options_log'
p809
g4
sg31
g7
sS'bonus_squared'
p810
g4
sS'total_stock_value_log'
p811
g4
sS'long_term_incentive_squared'
p812
g4
sS'salary_squared'
p813
g4
sg36
I2000000
sS'expenses_squared'
p814
g4
sg38
I2072035
sg39
I94
sS'deferral_payments_squared'
p815
g4
sS'deferral_payments_log'
p816
g4
sS'other_log'
p817
g4
sg43
I83
sS'restricted_stock_deferred_squared'
p818
g4
sS'total_payments_log'
p819
g4
sS'director_fees_squared'
p820
g4
sg47
I630137
sS'long_term_incentive_log'
p821
g4
sg49
I304110
sg50
I3038702
sg51
I1441898
sS'loan_advances_squared'
p822
g4
sS'total_stock_value_squared'
p823
g4
sS'other_squared'
p824
g4
sS'loan_advances_log'
p825
g4
sS'deferred_income_log'
p826
g4
ssS'WODRASKA JOHN'
p827
(dp828
S'expenses_log'
p829
g4
sg5
g7
sg6
g7
sS'bonus_log'
p830
g4
sS'director_fees_log'
p831
g4
sS'restricted_stock_squared'
p832
g4
sg11
g7
sS'total_payments_squared'
p833
g4
sg13
I00
sg14
g7
sS'restricted_stock_log'
p834
g4
sg16
S'john.wodraska@enron.com'
p835
sg18
g7
sS'exercised_stock_options_squared'
p836
g4
sS'restricted_stock_deferred_log'
p837
g4
sS'salary_log'
p838
g4
sS'deferred_income_squared'
p839
g4
sg24
g7
sg25
g4
sg26
g7
sg27
g7
sg28
g7
sg29
I189583
sS'exercised_stock_options_log'
p840
g4
sg31
g7
sS'bonus_squared'
p841
g4
sS'total_stock_value_log'
p842
g4
sS'long_term_incentive_squared'
p843
g4
sS'salary_squared'
p844
g4
sg36
g7
sS'expenses_squared'
p845
g4
sg38
g7
sg39
g7
sS'deferral_payments_squared'
p846
g4
sS'deferral_payments_log'
p847
g4
sS'other_log'
p848
g4
sg43
g7
sS'restricted_stock_deferred_squared'
p849
g4
sS'total_payments_log'
p850
g4
sS'director_fees_squared'
p851
g4
sg47
g7
sS'long_term_incentive_log'
p852
g4
sg49
g7
sg50
I189583
sg51
g7
sS'loan_advances_squared'
p853
g4
sS'total_stock_value_squared'
p854
g4
sS'other_squared'
p855
g4
sS'loan_advances_log'
p856
g4
sS'deferred_income_log'
p857
g4
ssS'BERGSIEKER RICHARD P'
p858
(dp859
S'expenses_log'
p860
g4
sg5
I383
sg6
g7
sS'bonus_log'
p861
g4
sS'director_fees_log'
p862
g4
sS'restricted_stock_squared'
p863
g4
sg11
I59175
sS'total_payments_squared'
p864
g4
sg13
I00
sg14
I-485813
sg15
F0.2875094695030814
sg16
S'rick.bergsieker@enron.com'
p865
sg18
I180250
sS'restricted_stock_log'
p866
g4
sS'restricted_stock_deferred_log'
p867
g4
sS'salary_log'
p868
g4
sS'exercised_stock_options_squared'
p869
g4
sS'deferred_income_squared'
p870
g4
sg24
g7
sg25
F0.5361990950226244
sg26
I233
sg27
g7
sg28
I59
sg29
I427316
sS'exercised_stock_options_log'
p871
g4
sg31
g7
sS'bonus_squared'
p872
g4
sS'total_stock_value_log'
p873
g4
sS'long_term_incentive_squared'
p874
g4
sS'salary_squared'
p875
g4
sg36
I250000
sS'expenses_squared'
p876
g4
sg38
I659249
sg39
I4
sS'deferral_payments_squared'
p877
g4
sS'deferral_payments_log'
p878
g4
sS'other_log'
p879
g4
sg43
I0
sS'restricted_stock_deferred_squared'
p880
g4
sS'total_payments_log'
p881
g4
sS'director_fees_squared'
p882
g4
sg47
I659249
sS'long_term_incentive_log'
p883
g4
sg49
I187922
sg50
I618850
sg51
g7
sS'loan_advances_squared'
p884
g4
sS'total_stock_value_squared'
p885
g4
sS'other_squared'
p886
g4
sS'loan_advances_log'
p887
g4
sS'deferred_income_log'
p888
g4
ssS'URQUHART JOHN A'
p889
(dp890
S'expenses_log'
p891
g4
sg5
g7
sg6
g7
sS'bonus_log'
p892
g4
sS'director_fees_log'
p893
g4
sS'restricted_stock_squared'
p894
g4
sg11
I228656
sS'total_payments_squared'
p895
g4
sg13
I00
sg14
I-36666
sS'restricted_stock_log'
p896
g4
sg16
g7
sg18
g7
sS'exercised_stock_options_squared'
p897
g4
sS'restricted_stock_deferred_log'
p898
g4
sS'salary_log'
p899
g4
sS'deferred_income_squared'
p900
g4
sg24
g7
sg25
g4
sg26
g7
sg27
g7
sg28
g7
sg29
g7
sS'exercised_stock_options_log'
p901
g4
sg31
I36666
sS'bonus_squared'
p902
g4
sS'total_stock_value_log'
p903
g4
sS'long_term_incentive_squared'
p904
g4
sS'salary_squared'
p905
g4
sg36
g7
sS'expenses_squared'
p906
g4
sg38
g7
sg39
g7
sS'deferral_payments_squared'
p907
g4
sS'deferral_payments_log'
p908
g4
sS'other_log'
p909
g4
sg43
g7
sS'restricted_stock_deferred_squared'
p910
g4
sS'total_payments_log'
p911
g4
sS'director_fees_squared'
p912
g4
sg47
g7
sS'long_term_incentive_log'
p913
g4
sg49
g7
sg50
I228656
sg51
g7
sS'loan_advances_squared'
p914
g4
sS'total_stock_value_squared'
p915
g4
sS'other_squared'
p916
g4
sS'loan_advances_log'
p917
g4
sS'deferred_income_log'
p918
g4
ssS'BIBI PHILIPPE A'
p919
(dp920
S'expenses_log'
p921
g4
sg5
I1607
sg6
g7
sS'bonus_log'
p922
g4
sS'director_fees_log'
p923
g4
sS'restricted_stock_squared'
p924
g4
sg11
I38559
sS'total_payments_squared'
p925
g4
sg13
I00
sg14
g7
sg15
F0.6888899211054744
sg16
S'philippe.bibi@enron.com'
p926
sg18
I369721
sS'restricted_stock_log'
p927
g4
sS'restricted_stock_deferred_log'
p928
g4
sS'salary_log'
p929
g4
sS'exercised_stock_options_squared'
p930
g4
sS'deferred_income_squared'
p931
g4
sg24
g7
sg25
F0.8299939283545841
sg26
I1336
sg27
g7
sg28
I40
sg29
I425688
sS'exercised_stock_options_log'
p932
g4
sg31
g7
sS'bonus_squared'
p933
g4
sS'total_stock_value_log'
p934
g4
sS'long_term_incentive_squared'
p935
g4
sS'salary_squared'
p936
g4
sg36
I1000000
sS'expenses_squared'
p937
g4
sg38
I1843816
sg39
I23
sS'deferral_payments_squared'
p938
g4
sS'deferral_payments_log'
p939
g4
sS'other_log'
p940
g4
sg43
I8
sS'restricted_stock_deferred_squared'
p941
g4
sS'total_payments_log'
p942
g4
sS'director_fees_squared'
p943
g4
sg47
I378082
sS'long_term_incentive_log'
p944
g4
sg49
I213625
sg50
I2047593
sg51
I1465734
sS'loan_advances_squared'
p945
g4
sS'total_stock_value_squared'
p946
g4
sS'other_squared'
p947
g4
sS'loan_advances_log'
p948
g4
sS'deferred_income_log'
p949
g4
ssS'RIEKER PAULA H'
p950
(dp951
S'expenses_log'
p952
g4
sg5
I1328
sg6
I214678
sS'bonus_log'
p953
g4
sS'director_fees_log'
p954
g4
sS'restricted_stock_squared'
p955
g4
sg11
I33271
sS'total_payments_squared'
p956
g4
sg13
I01
sg14
I-100000
sg15
F0.9045224083295609
sg16
S'paula.rieker@enron.com'
p957
sg18
g7
sS'restricted_stock_log'
p958
g4
sS'restricted_stock_deferred_log'
p959
g4
sS'salary_log'
p960
g4
sS'exercised_stock_options_squared'
p961
g4
sS'deferred_income_squared'
p962
g4
sg24
g7
sg25
F0.951063829787234
sg26
I1258
sg27
g7
sg28
I82
sg29
I1950
sS'exercised_stock_options_log'
p963
g4
sg31
g7
sS'bonus_squared'
p964
g4
sS'total_stock_value_log'
p965
g4
sS'long_term_incentive_squared'
p966
g4
sS'salary_squared'
p967
g4
sg36
I700000
sS'expenses_squared'
p968
g4
sg38
I1918887
sg39
I35
sS'deferral_payments_squared'
p969
g4
sS'deferral_payments_log'
p970
g4
sS'other_log'
p971
g4
sg43
I48
sS'restricted_stock_deferred_squared'
p972
g4
sS'total_payments_log'
p973
g4
sS'director_fees_squared'
p974
g4
sg47
I283649
sS'long_term_incentive_log'
p975
g4
sg49
I249201
sg50
I1099100
sg51
I1635238
sS'loan_advances_squared'
p976
g4
sS'total_stock_value_squared'
p977
g4
sS'other_squared'
p978
g4
sS'loan_advances_log'
p979
g4
sS'deferred_income_log'
p980
g4
ssS'WHALEY DAVID A'
p981
(dp982
S'expenses_log'
p983
g4
sg5
g7
sg6
g7
sS'bonus_log'
p984
g4
sS'director_fees_log'
p985
g4
sS'restricted_stock_squared'
p986
g4
sg11
g7
sS'total_payments_squared'
p987
g4
sg13
I00
sg14
g7
sS'restricted_stock_log'
p988
g4
sg16
g7
sg18
g7
sS'exercised_stock_options_squared'
p989
g4
sS'restricted_stock_deferred_log'
p990
g4
sS'salary_log'
p991
g4
sS'deferred_income_squared'
p992
g4
sg24
g7
sg25
g4
sg26
g7
sg27
g7
sg28
g7
sg29
g7
sS'exercised_stock_options_log'
p993
g4
sg31
g7
sS'bonus_squared'
p994
g4
sS'total_stock_value_log'
p995
g4
sS'long_term_incentive_squared'
p996
g4
sS'salary_squared'
p997
g4
sg36
g7
sS'expenses_squared'
p998
g4
sg38
I98718
sg39
g7
sS'deferral_payments_squared'
p999
g4
sS'deferral_payments_log'
p1000
g4
sS'other_log'
p1001
g4
sg43
g7
sS'restricted_stock_deferred_squared'
p1002
g4
sS'total_payments_log'
p1003
g4
sS'director_fees_squared'
p1004
g4
sg47
g7
sS'long_term_incentive_log'
p1005
g4
sg49
g7
sg50
g7
sg51
I98718
sS'loan_advances_squared'
p1006
g4
sS'total_stock_value_squared'
p1007
g4
sS'other_squared'
p1008
g4
sS'loan_advances_log'
p1009
g4
sS'deferred_income_log'
p1010
g4
ssS'BECK SALLY W'
p1011
(dp1012
S'expenses_log'
p1013
g4
sg5
I7315
sg6
g7
sS'bonus_log'
p1014
g4
sS'director_fees_log'
p1015
g4
sS'restricted_stock_squared'
p1016
g4
sg11
I37172
sS'total_payments_squared'
p1017
g4
sg13
I00
sg14
g7
sg15
F0.07389182217590885
sg16
S'sally.beck@enron.com'
p1018
sg18
g7
sS'restricted_stock_log'
p1019
g4
sS'restricted_stock_deferred_log'
p1020
g4
sS'salary_log'
p1021
g4
sS'exercised_stock_options_squared'
p1022
g4
sS'deferred_income_squared'
p1023
g4
sg24
g7
sg25
F0.2718305026591182
sg26
I2639
sg27
g7
sg28
I4343
sg29
I566
sS'exercised_stock_options_log'
p1024
g4
sg31
g7
sS'bonus_squared'
p1025
g4
sS'total_stock_value_log'
p1026
g4
sS'long_term_incentive_squared'
p1027
g4
sS'salary_squared'
p1028
g4
sg36
I700000
sS'expenses_squared'
p1029
g4
sg38
I126027
sg39
I144
sS'deferral_payments_squared'
p1030
g4
sS'deferral_payments_log'
p1031
g4
sS'other_log'
p1032
g4
sg43
I386
sS'restricted_stock_deferred_squared'
p1033
g4
sS'total_payments_log'
p1034
g4
sS'director_fees_squared'
p1035
g4
sg47
I126027
sS'long_term_incentive_log'
p1036
g4
sg49
I231330
sg50
I969068
sg51
g7
sS'loan_advances_squared'
p1037
g4
sS'total_stock_value_squared'
p1038
g4
sS'other_squared'
p1039
g4
sS'loan_advances_log'
p1040
g4
sS'deferred_income_log'
p1041
g4
ssS'HAUG DAVID L'
p1042
(dp1043
S'expenses_log'
p1044
g4
sg5
I573
sg6
g7
sS'bonus_log'
p1045
g4
sS'director_fees_log'
p1046
g4
sS'restricted_stock_squared'
p1047
g4
sg11
I475
sS'total_payments_squared'
p1048
g4
sg13
I00
sg14
g7
sg15
F0.6629040357925492
sg16
S'david.haug@enron.com'
p1049
sg18
g7
sS'restricted_stock_log'
p1050
g4
sS'restricted_stock_deferred_log'
p1051
g4
sS'salary_log'
p1052
g4
sS'exercised_stock_options_squared'
p1053
g4
sS'deferred_income_squared'
p1054
g4
sg24
g7
sg25
F0.8141891891891891
sg26
I471
sg27
g7
sg28
I19
sg29
g7
sS'exercised_stock_options_log'
p1055
g4
sg31
g7
sS'bonus_squared'
p1056
g4
sS'total_stock_value_log'
p1057
g4
sS'long_term_incentive_squared'
p1058
g4
sS'salary_squared'
p1059
g4
sg36
g7
sS'expenses_squared'
p1060
g4
sg38
I2217299
sg39
I4
sS'deferral_payments_squared'
p1061
g4
sS'deferral_payments_log'
p1062
g4
sS'other_log'
p1063
g4
sg43
I7
sS'restricted_stock_deferred_squared'
p1064
g4
sS'total_payments_log'
p1065
g4
sS'director_fees_squared'
p1066
g4
sg47
I2217299
sS'long_term_incentive_log'
p1067
g4
sg49
g7
sg50
I475
sg51
g7
sS'loan_advances_squared'
p1068
g4
sS'total_stock_value_squared'
p1069
g4
sS'other_squared'
p1070
g4
sS'loan_advances_log'
p1071
g4
sS'deferred_income_log'
p1072
g4
ssS'ECHOLS JOHN B'
p1073
(dp1074
S'expenses_log'
p1075
g4
sg5
g7
sg6
g7
sS'bonus_log'
p1076
g4
sS'director_fees_log'
p1077
g4
sS'restricted_stock_squared'
p1078
g4
sg11
I21530
sS'total_payments_squared'
p1079
g4
sg13
I00
sg14
g7
sS'restricted_stock_log'
p1080
g4
sg16
S'john.echols@enron.com'
p1081
sg18
I2234774
sS'exercised_stock_options_squared'
p1082
g4
sS'restricted_stock_deferred_log'
p1083
g4
sS'salary_log'
p1084
g4
sS'deferred_income_squared'
p1085
g4
sg24
g7
sg25
g4
sg26
g7
sg27
g7
sg28
g7
sg29
I53775
sS'exercised_stock_options_log'
p1086
g4
sg31
g7
sS'bonus_squared'
p1087
g4
sS'total_stock_value_log'
p1088
g4
sS'long_term_incentive_squared'
p1089
g4
sS'salary_squared'
p1090
g4
sg36
I200000
sS'expenses_squared'
p1091
g4
sg38
I1008941
sg39
g7
sS'deferral_payments_squared'
p1092
g4
sS'deferral_payments_log'
p1093
g4
sS'other_log'
p1094
g4
sg43
g7
sS'restricted_stock_deferred_squared'
p1095
g4
sS'total_payments_log'
p1096
g4
sS'director_fees_squared'
p1097
g4
sg47
I407503
sS'long_term_incentive_log'
p1098
g4
sg49
I182245
sg50
I2692324
sg51
I601438
sS'loan_advances_squared'
p1099
g4
sS'total_stock_value_squared'
p1100
g4
sS'other_squared'
p1101
g4
sS'loan_advances_log'
p1102
g4
sS'deferred_income_log'
p1103
g4
ssS'MENDELSOHN JOHN'
p1104
(dp1105
S'expenses_log'
p1106
g4
sg5
g7
sg6
g7
sS'bonus_log'
p1107
g4
sS'director_fees_log'
p1108
g4
sS'restricted_stock_squared'
p1109
g4
sg11
I148
sS'total_payments_squared'
p1110
g4
sg13
I00
sg14
I-103750
sS'restricted_stock_log'
p1111
g4
sg16
g7
sg18
g7
sS'exercised_stock_options_squared'
p1112
g4
sS'restricted_stock_deferred_log'
p1113
g4
sS'salary_log'
p1114
g4
sS'deferred_income_squared'
p1115
g4
sg24
g7
sg25
g4
sg26
g7
sg27
g7
sg28
g7
sg29
g7
sS'exercised_stock_options_log'
p1116
g4
sg31
I103750
sS'bonus_squared'
p1117
g4
sS'total_stock_value_log'
p1118
g4
sS'long_term_incentive_squared'
p1119
g4
sS'salary_squared'
p1120
g4
sg36
g7
sS'expenses_squared'
p1121
g4
sg38
g7
sg39
g7
sS'deferral_payments_squared'
p1122
g4
sS'deferral_payments_log'
p1123
g4
sS'other_log'
p1124
g4
sg43
g7
sS'restricted_stock_deferred_squared'
p1125
g4
sS'total_payments_log'
p1126
g4
sS'director_fees_squared'
p1127
g4
sg47
g7
sS'long_term_incentive_log'
p1128
g4
sg49
g7
sg50
I148
sg51
g7
sS'loan_advances_squared'
p1129
g4
sS'total_stock_value_squared'
p1130
g4
sS'other_squared'
p1131
g4
sS'loan_advances_log'
p1132
g4
sS'deferred_income_log'
p1133
g4
ssS'HICKERSON GARY J'
p1134
(dp1135
S'expenses_log'
p1136
g4
sg5
I1320
sg6
g7
sS'bonus_log'
p1137
g4
sS'director_fees_log'
p1138
g4
sS'restricted_stock_squared'
p1139
g4
sg11
I98849
sS'total_payments_squared'
p1140
g4
sg13
I00
sg14
g7
sg15
F0.48802723090549044
sg16
S'gary.hickerson@enron.com'
p1141
sg18
I69223
sS'restricted_stock_log'
p1142
g4
sS'restricted_stock_deferred_log'
p1143
g4
sS'salary_log'
p1144
g4
sS'exercised_stock_options_squared'
p1145
g4
sS'deferred_income_squared'
p1146
g4
sg24
g7
sg25
F0.6985894580549369
sg26
I900
sg27
g7
sg28
I27
sg29
I1936
sS'exercised_stock_options_log'
p1147
g4
sg31
g7
sS'bonus_squared'
p1148
g4
sS'total_stock_value_log'
p1149
g4
sS'long_term_incentive_squared'
p1150
g4
sS'salary_squared'
p1151
g4
sg36
I1700000
sS'expenses_squared'
p1152
g4
sg38
I441096
sg39
I40
sS'deferral_payments_squared'
p1153
g4
sS'deferral_payments_log'
p1154
g4
sS'other_log'
p1155
g4
sg43
I1
sS'restricted_stock_deferred_squared'
p1156
g4
sS'total_payments_log'
p1157
g4
sS'director_fees_squared'
p1158
g4
sg47
I441096
sS'long_term_incentive_log'
p1159
g4
sg49
I211788
sg50
I2081796
sg51
g7
sS'loan_advances_squared'
p1160
g4
sS'total_stock_value_squared'
p1161
g4
sS'other_squared'
p1162
g4
sS'loan_advances_log'
p1163
g4
sS'deferred_income_log'
p1164
g4
ssS'CLINE KENNETH W'
p1165
(dp1166
S'expenses_log'
p1167
g4
sg5
g7
sg6
g7
sS'bonus_log'
p1168
g4
sS'director_fees_log'
p1169
g4
sS'restricted_stock_squared'
p1170
g4
sg11
g7
sS'total_payments_squared'
p1171
g4
sg13
I00
sg14
g7
sS'restricted_stock_log'
p1172
g4
sg16
g7
sg18
g7
sS'exercised_stock_options_squared'
p1173
g4
sS'restricted_stock_deferred_log'
p1174
g4
sS'salary_log'
p1175
g4
sS'deferred_income_squared'
p1176
g4
sg24
I-472568
sg25
g4
sg26
g7
sg27
g7
sg28
g7
sg29
g7
sS'exercised_stock_options_log'
p1177
g4
sg31
g7
sS'bonus_squared'
p1178
g4
sS'total_stock_value_log'
p1179
g4
sS'long_term_incentive_squared'
p1180
g4
sS'salary_squared'
p1181
g4
sg36
g7
sS'expenses_squared'
p1182
g4
sg38
I189518
sg39
g7
sS'deferral_payments_squared'
p1183
g4
sS'deferral_payments_log'
p1184
g4
sS'other_log'
p1185
g4
sg43
g7
sS'restricted_stock_deferred_squared'
p1186
g4
sS'total_payments_log'
p1187
g4
sS'director_fees_squared'
p1188
g4
sg47
I662086
sS'long_term_incentive_log'
p1189
g4
sg49
g7
sg50
g7
sg51
g7
sS'loan_advances_squared'
p1190
g4
sS'total_stock_value_squared'
p1191
g4
sS'other_squared'
p1192
g4
sS'loan_advances_log'
p1193
g4
sS'deferred_income_log'
p1194
g4
ssS'LEWIS RICHARD'
p1195
(dp1196
S'expenses_log'
p1197
g4
sg5
I952
sg6
g7
sS'bonus_log'
p1198
g4
sS'director_fees_log'
p1199
g4
sS'restricted_stock_squared'
p1200
g4
sg11
g7
sS'total_payments_squared'
p1201
g4
sg13
I00
sg14
g7
sg15
F0.5865241864997218
sg16
S'richard.lewis@enron.com'
p1202
sg18
g7
sS'restricted_stock_log'
p1203
g4
sS'restricted_stock_deferred_log'
p1204
g4
sS'salary_log'
p1205
g4
sS'exercised_stock_options_squared'
p1206
g4
sS'deferred_income_squared'
p1207
g4
sg24
g7
sg25
F0.7658486707566462
sg26
I739
sg27
g7
sg28
I26
sg29
g7
sS'exercised_stock_options_log'
p1208
g4
sg31
g7
sS'bonus_squared'
p1209
g4
sS'total_stock_value_log'
p1210
g4
sS'long_term_incentive_squared'
p1211
g4
sS'salary_squared'
p1212
g4
sg36
g7
sS'expenses_squared'
p1213
g4
sg38
I850477
sg39
I10
sS'deferral_payments_squared'
p1214
g4
sS'deferral_payments_log'
p1215
g4
sS'other_log'
p1216
g4
sg43
I0
sS'restricted_stock_deferred_squared'
p1217
g4
sS'total_payments_log'
p1218
g4
sS'director_fees_squared'
p1219
g4
sg47
g7
sS'long_term_incentive_log'
p1220
g4
sg49
g7
sg50
g7
sg51
I850477
sS'loan_advances_squared'
p1221
g4
sS'total_stock_value_squared'
p1222
g4
sS'other_squared'
p1223
g4
sS'loan_advances_log'
p1224
g4
sS'deferred_income_log'
p1225
g4
ssS'HAYES ROBERT E'
p1226
(dp1227
S'expenses_log'
p1228
g4
sg5
I504
sg6
I7961
sS'bonus_log'
p1229
g4
sS'director_fees_log'
p1230
g4
sS'restricted_stock_squared'
p1231
g4
sg11
g7
sS'total_payments_squared'
p1232
g4
sg13
I00
sg14
g7
sg15
F0.016360194699837752
sg16
S'robert.hayes@enron.com'
p1233
sg18
g7
sS'restricted_stock_log'
p1234
g4
sS'restricted_stock_deferred_log'
p1235
g4
sS'salary_log'
p1236
g4
sS'exercised_stock_options_squared'
p1237
g4
sS'deferred_income_squared'
p1238
g4
sg24
g7
sg25
F0.12790697674418605
sg26
I50
sg27
g7
sg28
I12
sg29
g7
sS'exercised_stock_options_log'
p1239
g4
sg31
g7
sS'bonus_squared'
p1240
g4
sS'total_stock_value_log'
p1241
g4
sS'long_term_incentive_squared'
p1242
g4
sS'salary_squared'
p1243
g4
sg36
g7
sS'expenses_squared'
p1244
g4
sg38
I151418
sg39
I16
sS'deferral_payments_squared'
p1245
g4
sS'deferral_payments_log'
p1246
g4
sS'other_log'
p1247
g4
sg43
I0
sS'restricted_stock_deferred_squared'
p1248
g4
sS'total_payments_log'
p1249
g4
sS'director_fees_squared'
p1250
g4
sg47
I151418
sS'long_term_incentive_log'
p1251
g4
sg49
g7
sg50
I7961
sg51
g7
sS'loan_advances_squared'
p1252
g4
sS'total_stock_value_squared'
p1253
g4
sS'other_squared'
p1254
g4
sS'loan_advances_log'
p1255
g4
sS'deferred_income_log'
p1256
g4
ssS'MCCARTY DANNY J'
p1257
(dp1258
S'expenses_log'
p1259
g4
sg5
I1433
sg6
g7
sS'bonus_log'
p1260
g4
sS'director_fees_log'
p1261
g4
sS'restricted_stock_squared'
p1262
g4
sg11
g7
sS'total_payments_squared'
p1263
g4
sg13
I00
sg14
g7
sg15
F0.10538848206711282
sg16
S'danny.mccarty@enron.com'
p1264
sg18
g7
sS'restricted_stock_log'
p1265
g4
sS'restricted_stock_deferred_log'
p1266
g4
sS'salary_log'
p1267
g4
sS'exercised_stock_options_squared'
p1268
g4
sS'deferred_income_squared'
p1269
g4
sg24
g7
sg25
F0.3246359223300971
sg26
I508
sg27
g7
sg28
I215
sg29
g7
sS'exercised_stock_options_log'
p1270
g4
sg31
g7
sS'bonus_squared'
p1271
g4
sS'total_stock_value_log'
p1272
g4
sS'long_term_incentive_squared'
p1273
g4
sS'salary_squared'
p1274
g4
sg36
g7
sS'expenses_squared'
p1275
g4
sg38
I758931
sg39
I25
sS'deferral_payments_squared'
p1276
g4
sS'deferral_payments_log'
p1277
g4
sS'other_log'
p1278
g4
sg43
I2
sS'restricted_stock_deferred_squared'
p1279
g4
sS'total_payments_log'
p1280
g4
sS'director_fees_squared'
p1281
g4
sg47
I94556
sS'long_term_incentive_log'
p1282
g4
sg49
g7
sg50
g7
sg51
I664375
sS'loan_advances_squared'
p1283
g4
sS'total_stock_value_squared'
p1284
g4
sS'other_squared'
p1285
g4
sS'loan_advances_log'
p1286
g4
sS'deferred_income_log'
p1287
g4
ssS'KOPPER MICHAEL J'
p1288
(dp1289
S'expenses_log'
p1290
g4
sg5
g7
sg6
g7
sS'bonus_log'
p1291
g4
sS'director_fees_log'
p1292
g4
sS'restricted_stock_squared'
p1293
g4
sg11
I118134
sS'total_payments_squared'
p1294
g4
sg13
I01
sg14
g7
sS'restricted_stock_log'
p1295
g4
sg16
S'michael.kopper@enron.com'
p1296
sg18
I602671
sS'exercised_stock_options_squared'
p1297
g4
sS'restricted_stock_deferred_log'
p1298
g4
sS'salary_log'
p1299
g4
sS'deferred_income_squared'
p1300
g4
sg24
g7
sg25
g4
sg26
g7
sg27
g7
sg28
g7
sg29
I907502
sS'exercised_stock_options_log'
p1301
g4
sg31
g7
sS'bonus_squared'
p1302
g4
sS'total_stock_value_log'
p1303
g4
sS'long_term_incentive_squared'
p1304
g4
sS'salary_squared'
p1305
g4
sg36
I800000
sS'expenses_squared'
p1306
g4
sg38
I985032
sg39
g7
sS'deferral_payments_squared'
p1307
g4
sS'deferral_payments_log'
p1308
g4
sS'other_log'
p1309
g4
sg43
g7
sS'restricted_stock_deferred_squared'
p1310
g4
sS'total_payments_log'
p1311
g4
sS'director_fees_squared'
p1312
g4
sg47
I985032
sS'long_term_incentive_log'
p1313
g4
sg49
I224305
sg50
I2652612
sg51
g7
sS'loan_advances_squared'
p1314
g4
sS'total_stock_value_squared'
p1315
g4
sS'other_squared'
p1316
g4
sS'loan_advances_log'
p1317
g4
sS'deferred_income_log'
p1318
g4
ssS'LEFF DANIEL P'
p1319
(dp1320
S'expenses_log'
p1321
g4
sg5
I2822
sg6
g7
sS'bonus_log'
p1322
g4
sS'director_fees_log'
p1323
g4
sS'restricted_stock_squared'
p1324
g4
sg11
g7
sS'total_payments_squared'
p1325
g4
sg13
I00
sg14
g7
sg15
F0.9105856203574936
sg16
S'dan.leff@enron.com'
p1326
sg18
I1387399
sS'restricted_stock_log'
p1327
g4
sS'restricted_stock_deferred_log'
p1328
g4
sS'salary_log'
p1329
g4
sS'exercised_stock_options_squared'
p1330
g4
sS'deferred_income_squared'
p1331
g4
sg24
g7
sg25
F0.9542461005199306
sg26
I2672
sg27
g7
sg28
I63
sg29
I3083
sS'exercised_stock_options_log'
p1332
g4
sg31
g7
sS'bonus_squared'
p1333
g4
sS'total_stock_value_log'
p1334
g4
sS'long_term_incentive_squared'
p1335
g4
sS'salary_squared'
p1336
g4
sg36
I1000000
sS'expenses_squared'
p1337
g4
sg38
I360528
sg39
I67
sS'deferral_payments_squared'
p1338
g4
sS'deferral_payments_log'
p1339
g4
sS'other_log'
p1340
g4
sg43
I14
sS'restricted_stock_deferred_squared'
p1341
g4
sS'total_payments_log'
p1342
g4
sS'director_fees_squared'
p1343
g4
sg47
I360528
sS'long_term_incentive_log'
p1344
g4
sg49
I273746
sg50
I2664228
sg51
g7
sS'loan_advances_squared'
p1345
g4
sS'total_stock_value_squared'
p1346
g4
sS'other_squared'
p1347
g4
sS'loan_advances_log'
p1348
g4
sS'deferred_income_log'
p1349
g4
ssS'LAVORATO JOHN J'
p1350
(dp1351
S'expenses_log'
p1352
g4
sg5
I7259
sg6
g7
sS'bonus_log'
p1353
g4
sS'director_fees_log'
p1354
g4
sS'restricted_stock_squared'
p1355
g4
sg11
I49537
sS'total_payments_squared'
p1356
g4
sg13
I00
sg14
g7
sg15
F0.2478712717251373
sg16
S'john.lavorato@enron.com'
p1357
sg18
I2035380
sS'restricted_stock_log'
p1358
g4
sS'restricted_stock_deferred_log'
p1359
g4
sS'salary_log'
p1360
g4
sS'exercised_stock_options_squared'
p1361
g4
sS'deferred_income_squared'
p1362
g4
sg24
g7
sg25
F0.4978667208451849
sg26
I3962
sg27
g7
sg28
I2585
sg29
I1552
sS'exercised_stock_options_log'
p1363
g4
sg31
g7
sS'bonus_squared'
p1364
g4
sS'total_stock_value_log'
p1365
g4
sS'long_term_incentive_squared'
p1366
g4
sS'salary_squared'
p1367
g4
sg36
I8000000
sS'expenses_squared'
p1368
g4
sg38
I5167144
sg39
I528
sS'deferral_payments_squared'
p1369
g4
sS'deferral_payments_log'
p1370
g4
sS'other_log'
p1371
g4
sg43
I411
sS'restricted_stock_deferred_squared'
p1372
g4
sS'total_payments_log'
p1373
g4
sS'director_fees_squared'
p1374
g4
sg47
I1008149
sS'long_term_incentive_log'
p1375
g4
sg49
I339288
sg50
I10425757
sg51
I4158995
sS'loan_advances_squared'
p1376
g4
sS'total_stock_value_squared'
p1377
g4
sS'other_squared'
p1378
g4
sS'loan_advances_log'
p1379
g4
sS'deferred_income_log'
p1380
g4
ssS'BERBERIAN DAVID'
p1381
(dp1382
S'expenses_log'
p1383
g4
sg5
g7
sg6
g7
sS'bonus_log'
p1384
g4
sS'director_fees_log'
p1385
g4
sS'restricted_stock_squared'
p1386
g4
sg11
I11892
sS'total_payments_squared'
p1387
g4
sg13
I00
sg14
g7
sS'restricted_stock_log'
p1388
g4
sg16
S'david.berberian@enron.com'
p1389
sg18
g7
sS'exercised_stock_options_squared'
p1390
g4
sS'restricted_stock_deferred_log'
p1391
g4
sS'salary_log'
p1392
g4
sS'deferred_income_squared'
p1393
g4
sg24
g7
sg25
g4
sg26
g7
sg27
g7
sg28
g7
sg29
g7
sS'exercised_stock_options_log'
p1394
g4
sg31
g7
sS'bonus_squared'
p1395
g4
sS'total_stock_value_log'
p1396
g4
sS'long_term_incentive_squared'
p1397
g4
sS'salary_squared'
p1398
g4
sg36
g7
sS'expenses_squared'
p1399
g4
sg38
I2493616
sg39
g7
sS'deferral_payments_squared'
p1400
g4
sS'deferral_payments_log'
p1401
g4
sS'other_log'
p1402
g4
sg43
g7
sS'restricted_stock_deferred_squared'
p1403
g4
sS'total_payments_log'
p1404
g4
sS'director_fees_squared'
p1405
g4
sg47
I869220
sS'long_term_incentive_log'
p1406
g4
sg49
I216582
sg50
I228474
sg51
I1624396
sS'loan_advances_squared'
p1407
g4
sS'total_stock_value_squared'
p1408
g4
sS'other_squared'
p1409
g4
sS'loan_advances_log'
p1410
g4
sS'deferred_income_log'
p1411
g4
ssS'DETMERING TIMOTHY J'
p1412
(dp1413
S'expenses_log'
p1414
g4
sg5
g7
sg6
I875307
sS'bonus_log'
p1415
g4
sS'director_fees_log'
p1416
g4
sS'restricted_stock_squared'
p1417
g4
sg11
I52255
sS'total_payments_squared'
p1418
g4
sg13
I00
sg14
I-775241
sS'restricted_stock_log'
p1419
g4
sg16
S'timothy.detmering@enron.com'
p1420
sg18
I415657
sS'exercised_stock_options_squared'
p1421
g4
sS'restricted_stock_deferred_log'
p1422
g4
sS'salary_log'
p1423
g4
sS'deferred_income_squared'
p1424
g4
sg24
I-315068
sg25
g4
sg26
g7
sg27
g7
sg28
g7
sg29
I1105
sS'exercised_stock_options_log'
p1425
g4
sg31
g7
sS'bonus_squared'
p1426
g4
sS'total_stock_value_log'
p1427
g4
sS'long_term_incentive_squared'
p1428
g4
sS'salary_squared'
p1429
g4
sg36
I425000
sS'expenses_squared'
p1430
g4
sg38
I2027865
sg39
g7
sS'deferral_payments_squared'
p1431
g4
sS'deferral_payments_log'
p1432
g4
sS'other_log'
p1433
g4
sg43
g7
sS'restricted_stock_deferred_squared'
p1434
g4
sS'total_payments_log'
p1435
g4
sS'director_fees_squared'
p1436
g4
sg47
I315068
sS'long_term_incentive_log'
p1437
g4
sg49
I210500
sg50
I1204583
sg51
I2027865
sS'loan_advances_squared'
p1438
g4
sS'total_stock_value_squared'
p1439
g4
sS'other_squared'
p1440
g4
sS'loan_advances_log'
p1441
g4
sS'deferred_income_log'
p1442
g4
ssS'WAKEHAM JOHN'
p1443
(dp1444
S'expenses_log'
p1445
g4
sg5
g7
sg6
g7
sS'bonus_log'
p1446
g4
sS'director_fees_log'
p1447
g4
sS'restricted_stock_squared'
p1448
g4
sg11
I103773
sS'total_payments_squared'
p1449
g4
sg13
I00
sg14
g7
sS'restricted_stock_log'
p1450
g4
sg16
g7
sg18
g7
sS'exercised_stock_options_squared'
p1451
g4
sS'restricted_stock_deferred_log'
p1452
g4
sS'salary_log'
p1453
g4
sS'deferred_income_squared'
p1454
g4
sg24
g7
sg25
g4
sg26
g7
sg27
g7
sg28
g7
sg29
g7
sS'exercised_stock_options_log'
p1455
g4
sg31
I109298
sS'bonus_squared'
p1456
g4
sS'total_stock_value_log'
p1457
g4
sS'long_term_incentive_squared'
p1458
g4
sS'salary_squared'
p1459
g4
sg36
g7
sS'expenses_squared'
p1460
g4
sg38
g7
sg39
g7
sS'deferral_payments_squared'
p1461
g4
sS'deferral_payments_log'
p1462
g4
sS'other_log'
p1463
g4
sg43
g7
sS'restricted_stock_deferred_squared'
p1464
g4
sS'total_payments_log'
p1465
g4
sS'director_fees_squared'
p1466
g4
sg47
g7
sS'long_term_incentive_log'
p1467
g4
sg49
g7
sg50
I213071
sg51
g7
sS'loan_advances_squared'
p1468
g4
sS'total_stock_value_squared'
p1469
g4
sS'other_squared'
p1470
g4
sS'loan_advances_log'
p1471
g4
sS'deferred_income_log'
p1472
g4
ssS'POWERS WILLIAM'
p1473
(dp1474
S'expenses_log'
p1475
g4
sg5
I653
sg6
g7
sS'bonus_log'
p1476
g4
sS'director_fees_log'
p1477
g4
sS'restricted_stock_squared'
p1478
g4
sg11
g7
sS'total_payments_squared'
p1479
g4
sg13
I00
sg14
I-17500
sg15
F0.0003123366468491956
sg16
S'ken.powers@enron.com'
p1480
sg18
g7
sS'restricted_stock_log'
p1481
g4
sS'restricted_stock_deferred_log'
p1482
g4
sS'salary_log'
p1483
g4
sS'exercised_stock_options_squared'
p1484
g4
sS'deferred_income_squared'
p1485
g4
sg24
g7
sg25
F0.017673048600883652
sg26
I12
sg27
g7
sg28
I26
sg29
g7
sS'exercised_stock_options_log'
p1486
g4
sg31
I17500
sS'bonus_squared'
p1487
g4
sS'total_stock_value_log'
p1488
g4
sS'long_term_incentive_squared'
p1489
g4
sS'salary_squared'
p1490
g4
sg36
g7
sS'expenses_squared'
p1491
g4
sg38
g7
sg39
I0
sS'deferral_payments_squared'
p1492
g4
sS'deferral_payments_log'
p1493
g4
sS'other_log'
p1494
g4
sg43
I0
sS'restricted_stock_deferred_squared'
p1495
g4
sS'total_payments_log'
p1496
g4
sS'director_fees_squared'
p1497
g4
sg47
g7
sS'long_term_incentive_log'
p1498
g4
sg49
g7
sg50
g7
sg51
g7
sS'loan_advances_squared'
p1499
g4
sS'total_stock_value_squared'
p1500
g4
sS'other_squared'
p1501
g4
sS'loan_advances_log'
p1502
g4
sS'deferred_income_log'
p1503
g4
ssS'GOLD JOSEPH'
p1504
(dp1505
S'expenses_log'
p1506
g4
sg5
g7
sg6
g7
sS'bonus_log'
p1507
g4
sS'director_fees_log'
p1508
g4
sS'restricted_stock_squared'
p1509
g4
sg11
g7
sS'total_payments_squared'
p1510
g4
sg13
I00
sg14
g7
sS'restricted_stock_log'
p1511
g4
sg16
S'joe.gold@enron.com'
p1512
sg18
I304805
sS'exercised_stock_options_squared'
p1513
g4
sS'restricted_stock_deferred_log'
p1514
g4
sS'salary_log'
p1515
g4
sS'deferred_income_squared'
p1516
g4
sg24
g7
sg25
g4
sg26
g7
sg27
g7
sg28
g7
sg29
I819288
sS'exercised_stock_options_log'
p1517
g4
sg31
g7
sS'bonus_squared'
p1518
g4
sS'total_stock_value_log'
p1519
g4
sS'long_term_incentive_squared'
p1520
g4
sS'salary_squared'
p1521
g4
sg36
I750000
sS'expenses_squared'
p1522
g4
sg38
I877611
sg39
g7
sS'deferral_payments_squared'
p1523
g4
sS'deferral_payments_log'
p1524
g4
sS'other_log'
p1525
g4
sg43
g7
sS'restricted_stock_deferred_squared'
p1526
g4
sS'total_payments_log'
p1527
g4
sS'director_fees_squared'
p1528
g4
sg47
I441096
sS'long_term_incentive_log'
p1529
g4
sg49
I272880
sg50
I2146973
sg51
I436515
sS'loan_advances_squared'
p1530
g4
sS'total_stock_value_squared'
p1531
g4
sS'other_squared'
p1532
g4
sS'loan_advances_log'
p1533
g4
sS'deferred_income_log'
p1534
g4
ssS'BANNANTINE JAMES M'
p1535
(dp1536
S'expenses_log'
p1537
g4
sg5
I566
sg6
g7
sS'bonus_log'
p1538
g4
sS'director_fees_log'
p1539
g4
sS'restricted_stock_squared'
p1540
g4
sg11
I56301
sS'total_payments_squared'
p1541
g4
sg13
I00
sg14
I-5104
sg15
F0.7175086505190311
sg16
S'james.bannantine@enron.com'
p1542
sg18
g7
sS'restricted_stock_log'
p1543
g4
sS'restricted_stock_deferred_log'
p1544
g4
sS'salary_log'
p1545
g4
sS'exercised_stock_options_squared'
p1546
g4
sS'deferred_income_squared'
p1547
g4
sg24
I-560222
sg25
F0.8470588235294118
sg26
I465
sg27
g7
sg28
I29
sg29
I864523
sS'exercised_stock_options_log'
p1548
g4
sg31
g7
sS'bonus_squared'
p1549
g4
sS'total_stock_value_log'
p1550
g4
sS'long_term_incentive_squared'
p1551
g4
sS'salary_squared'
p1552
g4
sg36
g7
sS'expenses_squared'
p1553
g4
sg38
I5243487
sg39
I39
sS'deferral_payments_squared'
p1554
g4
sS'deferral_payments_log'
p1555
g4
sS'other_log'
p1556
g4
sg43
I0
sS'restricted_stock_deferred_squared'
p1557
g4
sS'total_payments_log'
p1558
g4
sS'director_fees_squared'
p1559
g4
sg47
I1757552
sS'long_term_incentive_log'
p1560
g4
sg49
I477
sg50
I916197
sg51
I4046157
sS'loan_advances_squared'
p1561
g4
sS'total_stock_value_squared'
p1562
g4
sS'other_squared'
p1563
g4
sS'loan_advances_log'
p1564
g4
sS'deferred_income_log'
p1565
g4
ssS'DUNCAN JOHN H'
p1566
(dp1567
S'expenses_log'
p1568
g4
sg5
g7
sg6
g7
sS'bonus_log'
p1569
g4
sS'director_fees_log'
p1570
g4
sS'restricted_stock_squared'
p1571
g4
sg11
g7
sS'total_payments_squared'
p1572
g4
sg13
I00
sg14
I-25000
sS'restricted_stock_log'
p1573
g4
sg16
g7
sg18
g7
sS'exercised_stock_options_squared'
p1574
g4
sS'restricted_stock_deferred_log'
p1575
g4
sS'salary_log'
p1576
g4
sS'deferred_income_squared'
p1577
g4
sg24
g7
sg25
g4
sg26
g7
sg27
g7
sg28
g7
sg29
g7
sS'exercised_stock_options_log'
p1578
g4
sg31
I102492
sS'bonus_squared'
p1579
g4
sS'total_stock_value_log'
p1580
g4
sS'long_term_incentive_squared'
p1581
g4
sS'salary_squared'
p1582
g4
sg36
g7
sS'expenses_squared'
p1583
g4
sg38
I371750
sg39
g7
sS'deferral_payments_squared'
p1584
g4
sS'deferral_payments_log'
p1585
g4
sS'other_log'
p1586
g4
sg43
g7
sS'restricted_stock_deferred_squared'
p1587
g4
sS'total_payments_log'
p1588
g4
sS'director_fees_squared'
p1589
g4
sg47
g7
sS'long_term_incentive_log'
p1590
g4
sg49
g7
sg50
I77492
sg51
I371750
sS'loan_advances_squared'
p1591
g4
sS'total_stock_value_squared'
p1592
g4
sS'other_squared'
p1593
g4
sS'loan_advances_log'
p1594
g4
sS'deferred_income_log'
p1595
g4
ssS'SHAPIRO RICHARD S'
p1596
(dp1597
S'expenses_log'
p1598
g4
sg5
I15149
sg6
g7
sS'bonus_log'
p1599
g4
sS'director_fees_log'
p1600
g4
sS'restricted_stock_squared'
p1601
g4
sg11
I137767
sS'total_payments_squared'
p1602
g4
sg13
I00
sg14
g7
sg15
F0.0813037406577961
sg16
S'richard.shapiro@enron.com'
p1603
sg18
g7
sS'restricted_stock_log'
p1604
g4
sS'restricted_stock_deferred_log'
p1605
g4
sS'salary_log'
p1606
g4
sS'exercised_stock_options_squared'
p1607
g4
sS'deferred_income_squared'
p1608
g4
sg24
g7
sg25
F0.28513810804204354
sg26
I4527
sg27
g7
sg28
I1215
sg29
I705
sS'exercised_stock_options_log'
p1609
g4
sg31
g7
sS'bonus_squared'
p1610
g4
sS'total_stock_value_log'
p1611
g4
sS'long_term_incentive_squared'
p1612
g4
sS'salary_squared'
p1613
g4
sg36
I650000
sS'expenses_squared'
p1614
g4
sg38
I987001
sg39
I74
sS'deferral_payments_squared'
p1615
g4
sS'deferral_payments_log'
p1616
g4
sS'other_log'
p1617
g4
sg43
I65
sS'restricted_stock_deferred_squared'
p1618
g4
sS'total_payments_log'
p1619
g4
sS'director_fees_squared'
p1620
g4
sg47
I379164
sS'long_term_incentive_log'
p1621
g4
sg49
I269076
sg50
I1057548
sg51
I607837
sS'loan_advances_squared'
p1622
g4
sS'total_stock_value_squared'
p1623
g4
sS'other_squared'
p1624
g4
sS'loan_advances_log'
p1625
g4
sS'deferred_income_log'
p1626
g4
ssS'SHERRIFF JOHN R'
p1627
(dp1628
S'expenses_log'
p1629
g4
sg5
I3187
sg6
g7
sS'bonus_log'
p1630
g4
sS'director_fees_log'
p1631
g4
sS'restricted_stock_squared'
p1632
g4
sg11
g7
sS'total_payments_squared'
p1633
g4
sg13
I00
sg14
g7
sg15
F0.4315275867639783
sg16
S'john.sherriff@enron.com'
p1634
sg18
I554422
sS'restricted_stock_log'
p1635
g4
sS'restricted_stock_deferred_log'
p1636
g4
sS'salary_log'
p1637
g4
sS'exercised_stock_options_squared'
p1638
g4
sS'deferred_income_squared'
p1639
g4
sg24
g7
sg25
F0.656907593778591
sg26
I2103
sg27
g7
sg28
I92
sg29
I1852186
sS'exercised_stock_options_log'
p1640
g4
sg31
g7
sS'bonus_squared'
p1641
g4
sS'total_stock_value_log'
p1642
g4
sS'long_term_incentive_squared'
p1643
g4
sS'salary_squared'
p1644
g4
sg36
I1500000
sS'expenses_squared'
p1645
g4
sg38
I3128982
sg39
I28
sS'deferral_payments_squared'
p1646
g4
sS'deferral_payments_log'
p1647
g4
sS'other_log'
p1648
g4
sg43
I23
sS'restricted_stock_deferred_squared'
p1649
g4
sS'total_payments_log'
p1650
g4
sS'director_fees_squared'
p1651
g4
sg47
I1293424
sS'long_term_incentive_log'
p1652
g4
sg49
I428780
sg50
I4335388
sg51
I1835558
sS'loan_advances_squared'
p1653
g4
sS'total_stock_value_squared'
p1654
g4
sS'other_squared'
p1655
g4
sS'loan_advances_log'
p1656
g4
sS'deferred_income_log'
p1657
g4
ssS'SHELBY REX'
p1658
(dp1659
S'expenses_log'
p1660
g4
sg5
I225
sg6
g7
sS'bonus_log'
p1661
g4
sS'director_fees_log'
p1662
g4
sS'restricted_stock_squared'
p1663
g4
sg11
I22884
sS'total_payments_squared'
p1664
g4
sg13
I01
sg14
I-4167
sg15
F0.19978191000918272
sg16
S'rex.shelby@enron.com'
p1665
sg18
g7
sS'restricted_stock_log'
p1666
g4
sS'restricted_stock_deferred_log'
p1667
g4
sS'salary_log'
p1668
g4
sS'exercised_stock_options_squared'
p1669
g4
sS'deferred_income_squared'
p1670
g4
sg24
g7
sg25
F0.44696969696969696
sg26
I91
sg27
g7
sg28
I39
sg29
I1573324
sS'exercised_stock_options_log'
p1671
g4
sg31
g7
sS'bonus_squared'
p1672
g4
sS'total_stock_value_log'
p1673
g4
sS'long_term_incentive_squared'
p1674
g4
sS'salary_squared'
p1675
g4
sg36
I200000
sS'expenses_squared'
p1676
g4
sg38
I2493616
sg39
I13
sS'deferral_payments_squared'
p1677
g4
sS'deferral_payments_log'
p1678
g4
sS'other_log'
p1679
g4
sg43
I14
sS'restricted_stock_deferred_squared'
p1680
g4
sS'total_payments_log'
p1681
g4
sS'director_fees_squared'
p1682
g4
sg47
I869220
sS'long_term_incentive_log'
p1683
g4
sg49
I211844
sg50
I2003885
sg51
I1624396
sS'loan_advances_squared'
p1684
g4
sS'total_stock_value_squared'
p1685
g4
sS'other_squared'
p1686
g4
sS'loan_advances_log'
p1687
g4
sS'deferred_income_log'
p1688
g4
ssS'LEMAISTRE CHARLES'
p1689
(dp1690
S'expenses_log'
p1691
g4
sg5
g7
sg6
g7
sS'bonus_log'
p1692
g4
sS'director_fees_log'
p1693
g4
sS'restricted_stock_squared'
p1694
g4
sg11
g7
sS'total_payments_squared'
p1695
g4
sg13
I00
sg14
I-25000
sS'restricted_stock_log'
p1696
g4
sg16
g7
sg18
g7
sS'exercised_stock_options_squared'
p1697
g4
sS'restricted_stock_deferred_log'
p1698
g4
sS'salary_log'
p1699
g4
sS'deferred_income_squared'
p1700
g4
sg24
g7
sg25
g4
sg26
g7
sg27
g7
sg28
g7
sg29
g7
sS'exercised_stock_options_log'
p1701
g4
sg31
I112492
sS'bonus_squared'
p1702
g4
sS'total_stock_value_log'
p1703
g4
sS'long_term_incentive_squared'
p1704
g4
sS'salary_squared'
p1705
g4
sg36
g7
sS'expenses_squared'
p1706
g4
sg38
I412878
sg39
g7
sS'deferral_payments_squared'
p1707
g4
sS'deferral_payments_log'
p1708
g4
sS'other_log'
p1709
g4
sg43
g7
sS'restricted_stock_deferred_squared'
p1710
g4
sS'total_payments_log'
p1711
g4
sS'director_fees_squared'
p1712
g4
sg47
g7
sS'long_term_incentive_log'
p1713
g4
sg49
g7
sg50
I87492
sg51
I412878
sS'loan_advances_squared'
p1714
g4
sS'total_stock_value_squared'
p1715
g4
sS'other_squared'
p1716
g4
sS'loan_advances_log'
p1717
g4
sS'deferred_income_log'
p1718
g4
ssS'DEFFNER JOSEPH M'
p1719
(dp1720
S'expenses_log'
p1721
g4
sg5
I714
sg6
g7
sS'bonus_log'
p1722
g4
sS'director_fees_log'
p1723
g4
sS'restricted_stock_squared'
p1724
g4
sg11
I41626
sS'total_payments_squared'
p1725
g4
sg13
I00
sg14
g7
sg15
F0.7250911515370145
sg16
S'joseph.deffner@enron.com'
p1726
sg18
I335349
sS'restricted_stock_log'
p1727
g4
sS'restricted_stock_deferred_log'
p1728
g4
sS'salary_log'
p1729
g4
sS'exercised_stock_options_squared'
p1730
g4
sS'deferred_income_squared'
p1731
g4
sg24
g7
sg25
F0.8515228426395939
sg26
I552
sg27
g7
sg28
I74
sg29
I25553
sS'exercised_stock_options_log'
p1732
g4
sg31
g7
sS'bonus_squared'
p1733
g4
sS'total_stock_value_log'
p1734
g4
sS'long_term_incentive_squared'
p1735
g4
sS'salary_squared'
p1736
g4
sg36
I600000
sS'expenses_squared'
p1737
g4
sg38
I159211
sg39
I115
sS'deferral_payments_squared'
p1738
g4
sS'deferral_payments_log'
p1739
g4
sS'other_log'
p1740
g4
sg43
I4
sS'restricted_stock_deferred_squared'
p1741
g4
sS'total_payments_log'
p1742
g4
sS'director_fees_squared'
p1743
g4
sg47
I141833
sS'long_term_incentive_log'
p1744
g4
sg49
I206121
sg50
I1208649
sg51
I17378
sS'loan_advances_squared'
p1745
g4
sS'total_stock_value_squared'
p1746
g4
sS'other_squared'
p1747
g4
sS'loan_advances_log'
p1748
g4
sS'deferred_income_log'
p1749
g4
ssS'KISHKILL JOSEPH G'
p1750
(dp1751
S'expenses_log'
p1752
g4
sg5
g7
sg6
g7
sS'bonus_log'
p1753
g4
sS'director_fees_log'
p1754
g4
sS'restricted_stock_squared'
p1755
g4
sg11
I116335
sS'total_payments_squared'
p1756
g4
sg13
I00
sg14
I-51042
sS'restricted_stock_log'
p1757
g4
sg16
S'joe.kishkill@enron.com'
p1758
sg18
g7
sS'exercised_stock_options_squared'
p1759
g4
sS'restricted_stock_deferred_log'
p1760
g4
sS'salary_log'
p1761
g4
sS'deferred_income_squared'
p1762
g4
sg24
g7
sg25
g4
sg26
g7
sg27
g7
sg28
g7
sg29
I465357
sS'exercised_stock_options_log'
p1763
g4
sg31
g7
sS'bonus_squared'
p1764
g4
sS'total_stock_value_log'
p1765
g4
sS'long_term_incentive_squared'
p1766
g4
sS'salary_squared'
p1767
g4
sg36
g7
sS'expenses_squared'
p1768
g4
sg38
I1034346
sg39
g7
sS'deferral_payments_squared'
p1769
g4
sS'deferral_payments_log'
p1770
g4
sS'other_log'
p1771
g4
sg43
g7
sS'restricted_stock_deferred_squared'
p1772
g4
sS'total_payments_log'
p1773
g4
sS'director_fees_squared'
p1774
g4
sg47
I1034346
sS'long_term_incentive_log'
p1775
g4
sg49
I174246
sg50
I704896
sg51
g7
sS'loan_advances_squared'
p1776
g4
sS'total_stock_value_squared'
p1777
g4
sS'other_squared'
p1778
g4
sS'loan_advances_log'
p1779
g4
sS'deferred_income_log'
p1780
g4
ssS'WHALLEY LAWRENCE G'
p1781
(dp1782
S'expenses_log'
p1783
g4
sg5
I6019
sg6
g7
sS'bonus_log'
p1784
g4
sS'director_fees_log'
p1785
g4
sS'restricted_stock_squared'
p1786
g4
sg11
I57838
sS'total_payments_squared'
p1787
g4
sg13
I00
sg14
g7
sg15
F0.3945559426910899
sg16
S'greg.whalley@enron.com'
p1788
sg18
I808346
sS'restricted_stock_log'
p1789
g4
sS'restricted_stock_deferred_log'
p1790
g4
sS'salary_log'
p1791
g4
sS'exercised_stock_options_squared'
p1792
g4
sS'deferred_income_squared'
p1793
g4
sg24
g7
sg25
F0.6281368821292775
sg26
I3920
sg27
g7
sg28
I556
sg29
I301026
sS'exercised_stock_options_log'
p1794
g4
sg31
g7
sS'bonus_squared'
p1795
g4
sS'total_stock_value_log'
p1796
g4
sS'long_term_incentive_squared'
p1797
g4
sS'salary_squared'
p1798
g4
sg36
I3000000
sS'expenses_squared'
p1799
g4
sg38
I6079137
sg39
I186
sS'deferral_payments_squared'
p1800
g4
sS'deferral_payments_log'
p1801
g4
sS'other_log'
p1802
g4
sg43
I24
sS'restricted_stock_deferred_squared'
p1803
g4
sS'total_payments_log'
p1804
g4
sS'director_fees_squared'
p1805
g4
sg47
I2796177
sS'long_term_incentive_log'
p1806
g4
sg49
I510364
sg50
I4677574
sg51
I3282960
sS'loan_advances_squared'
p1807
g4
sS'total_stock_value_squared'
p1808
g4
sS'other_squared'
p1809
g4
sS'loan_advances_log'
p1810
g4
sS'deferred_income_log'
p1811
g4
ssS'MCCONNELL MICHAEL S'
p1812
(dp1813
S'expenses_log'
p1814
g4
sg5
I3329
sg6
g7
sS'bonus_log'
p1815
g4
sS'director_fees_log'
p1816
g4
sS'restricted_stock_squared'
p1817
g4
sg11
I81364
sS'total_payments_squared'
p1818
g4
sg13
I00
sg14
g7
sg15
F0.16619958721048717
sg16
S'mike.mcconnell@enron.com'
p1819
sg18
I554422
sS'restricted_stock_log'
p1820
g4
sS'restricted_stock_deferred_log'
p1821
g4
sS'salary_log'
p1822
g4
sS'exercised_stock_options_squared'
p1823
g4
sS'deferred_income_squared'
p1824
g4
sg24
g7
sg25
F0.4076758359413606
sg26
I2189
sg27
g7
sg28
I2742
sg29
I540
sS'exercised_stock_options_log'
p1825
g4
sg31
g7
sS'bonus_squared'
p1826
g4
sS'total_stock_value_log'
p1827
g4
sS'long_term_incentive_squared'
p1828
g4
sS'salary_squared'
p1829
g4
sg36
I1100000
sS'expenses_squared'
p1830
g4
sg38
I3101279
sg39
I92
sS'deferral_payments_squared'
p1831
g4
sS'deferral_payments_log'
p1832
g4
sS'other_log'
p1833
g4
sg43
I194
sS'restricted_stock_deferred_squared'
p1834
g4
sS'total_payments_log'
p1835
g4
sS'director_fees_squared'
p1836
g4
sg47
I1478269
sS'long_term_incentive_log'
p1837
g4
sg49
I365038
sg50
I2101364
sg51
I1623010
sS'loan_advances_squared'
p1838
g4
sS'total_stock_value_squared'
p1839
g4
sS'other_squared'
p1840
g4
sS'loan_advances_log'
p1841
g4
sS'deferred_income_log'
p1842
g4
ssS'PIRO JIM'
p1843
(dp1844
S'expenses_log'
p1845
g4
sg5
I58
sg6
g7
sS'bonus_log'
p1846
g4
sS'director_fees_log'
p1847
g4
sS'restricted_stock_squared'
p1848
g4
sg11
g7
sS'total_payments_squared'
p1849
g4
sg13
I00
sg14
g7
sg15
F0.002921840759678598
sg16
S'jim.piro@enron.com'
p1850
sg18
g7
sS'restricted_stock_log'
p1851
g4
sS'restricted_stock_deferred_log'
p1852
g4
sS'salary_log'
p1853
g4
sS'exercised_stock_options_squared'
p1854
g4
sS'deferred_income_squared'
p1855
g4
sg24
g7
sg25
F0.05405405405405406
sg26
I3
sg27
g7
sg28
I16
sg29
g7
sS'exercised_stock_options_log'
p1856
g4
sg31
g7
sS'bonus_squared'
p1857
g4
sS'total_stock_value_log'
p1858
g4
sS'long_term_incentive_squared'
p1859
g4
sS'salary_squared'
p1860
g4
sg36
g7
sS'expenses_squared'
p1861
g4
sg38
I47304
sg39
I0
sS'deferral_payments_squared'
p1862
g4
sS'deferral_payments_log'
p1863
g4
sS'other_log'
p1864
g4
sg43
I1
sS'restricted_stock_deferred_squared'
p1865
g4
sS'total_payments_log'
p1866
g4
sS'director_fees_squared'
p1867
g4
sg47
I47304
sS'long_term_incentive_log'
p1868
g4
sg49
g7
sg50
g7
sg51
g7
sS'loan_advances_squared'
p1869
g4
sS'total_stock_value_squared'
p1870
g4
sS'other_squared'
p1871
g4
sS'loan_advances_log'
p1872
g4
sS'deferred_income_log'
p1873
g4
ssS'DELAINEY DAVID W'
p1874
(dp1875
S'expenses_log'
p1876
g4
sg5
I3093
sg6
g7
sS'bonus_log'
p1877
g4
sS'director_fees_log'
p1878
g4
sS'restricted_stock_squared'
p1879
g4
sg11
I86174
sS'total_payments_squared'
p1880
g4
sg13
I01
sg14
g7
sg15
F0.20236857050484058
sg16
S'david.delainey@enron.com'
p1881
sg18
I1294981
sS'restricted_stock_log'
p1882
g4
sS'restricted_stock_deferred_log'
p1883
g4
sS'salary_log'
p1884
g4
sS'exercised_stock_options_squared'
p1885
g4
sS'deferred_income_squared'
p1886
g4
sg24
g7
sg25
F0.4498539435248296
sg26
I2097
sg27
g7
sg28
I3069
sg29
I1661
sS'exercised_stock_options_log'
p1887
g4
sg31
g7
sS'bonus_squared'
p1888
g4
sS'total_stock_value_log'
p1889
g4
sS'long_term_incentive_squared'
p1890
g4
sS'salary_squared'
p1891
g4
sg36
I3000000
sS'expenses_squared'
p1892
g4
sg38
I3614261
sg39
I66
sS'deferral_payments_squared'
p1893
g4
sS'deferral_payments_log'
p1894
g4
sS'other_log'
p1895
g4
sg43
I609
sS'restricted_stock_deferred_squared'
p1896
g4
sS'total_payments_log'
p1897
g4
sS'director_fees_squared'
p1898
g4
sg47
I1323148
sS'long_term_incentive_log'
p1899
g4
sg49
I365163
sg50
I4747979
sg51
I2291113
sS'loan_advances_squared'
p1900
g4
sS'total_stock_value_squared'
p1901
g4
sS'other_squared'
p1902
g4
sS'loan_advances_log'
p1903
g4
sS'deferred_income_log'
p1904
g4
ssS'SULLIVAN-SHAKLOVITZ COLLEEN'
p1905
(dp1906
S'expenses_log'
p1907
g4
sg5
g7
sg6
I181993
sS'bonus_log'
p1908
g4
sS'director_fees_log'
p1909
g4
sS'restricted_stock_squared'
p1910
g4
sg11
g7
sS'total_payments_squared'
p1911
g4
sg13
I00
sg14
g7
sS'restricted_stock_log'
p1912
g4
sg16
g7
sg18
I554422
sS'exercised_stock_options_squared'
p1913
g4
sS'restricted_stock_deferred_log'
p1914
g4
sS'salary_log'
p1915
g4
sS'deferred_income_squared'
p1916
g4
sg24
g7
sg25
g4
sg26
g7
sg27
g7
sg28
g7
sg29
I162
sS'exercised_stock_options_log'
p1917
g4
sg31
g7
sS'bonus_squared'
p1918
g4
sS'total_stock_value_log'
p1919
g4
sS'long_term_incentive_squared'
p1920
g4
sS'salary_squared'
p1921
g4
sg36
I100000
sS'expenses_squared'
p1922
g4
sg38
I1362375
sg39
g7
sS'deferral_payments_squared'
p1923
g4
sS'deferral_payments_log'
p1924
g4
sS'other_log'
p1925
g4
sg43
g7
sS'restricted_stock_deferred_squared'
p1926
g4
sS'total_payments_log'
p1927
g4
sS'director_fees_squared'
p1928
g4
sg47
g7
sS'long_term_incentive_log'
p1929
g4
sg49
I162779
sg50
I999356
sg51
I1362375
sS'loan_advances_squared'
p1930
g4
sS'total_stock_value_squared'
p1931
g4
sS'other_squared'
p1932
g4
sS'loan_advances_log'
p1933
g4
sS'deferred_income_log'
p1934
g4
ssS'WROBEL BRUCE'
p1935
(dp1936
S'expenses_log'
p1937
g4
sg5
g7
sg6
g7
sS'bonus_log'
p1938
g4
sS'director_fees_log'
p1939
g4
sS'restricted_stock_squared'
p1940
g4
sg11
g7
sS'total_payments_squared'
p1941
g4
sg13
I00
sg14
g7
sS'restricted_stock_log'
p1942
g4
sg16
g7
sg18
g7
sS'exercised_stock_options_squared'
p1943
g4
sS'restricted_stock_deferred_log'
p1944
g4
sS'salary_log'
p1945
g4
sS'deferred_income_squared'
p1946
g4
sg24
g7
sg25
g4
sg26
g7
sg27
g7
sg28
g7
sg29
g7
sS'exercised_stock_options_log'
p1947
g4
sg31
g7
sS'bonus_squared'
p1948
g4
sS'total_stock_value_log'
p1949
g4
sS'long_term_incentive_squared'
p1950
g4
sS'salary_squared'
p1951
g4
sg36
g7
sS'expenses_squared'
p1952
g4
sg38
I139130
sg39
g7
sS'deferral_payments_squared'
p1953
g4
sS'deferral_payments_log'
p1954
g4
sS'other_log'
p1955
g4
sg43
g7
sS'restricted_stock_deferred_squared'
p1956
g4
sS'total_payments_log'
p1957
g4
sS'director_fees_squared'
p1958
g4
sg47
g7
sS'long_term_incentive_log'
p1959
g4
sg49
g7
sg50
g7
sg51
I139130
sS'loan_advances_squared'
p1960
g4
sS'total_stock_value_squared'
p1961
g4
sS'other_squared'
p1962
g4
sS'loan_advances_log'
p1963
g4
sS'deferred_income_log'
p1964
g4
ssS'LINDHOLM TOD A'
p1965
(dp1966
S'expenses_log'
p1967
g4
sg5
g7
sg6
I204075
sS'bonus_log'
p1968
g4
sS'director_fees_log'
p1969
g4
sS'restricted_stock_squared'
p1970
g4
sg11
I57727
sS'total_payments_squared'
p1971
g4
sg13
I00
sg14
g7
sS'restricted_stock_log'
p1972
g4
sg16
S'tod.lindholm@enron.com'
p1973
sg18
I175000
sS'exercised_stock_options_squared'
p1974
g4
sS'restricted_stock_deferred_log'
p1975
g4
sS'salary_log'
p1976
g4
sS'deferred_income_squared'
p1977
g4
sg24
g7
sg25
g4
sg26
g7
sg27
g7
sg28
g7
sg29
I2630
sS'exercised_stock_options_log'
p1978
g4
sg31
g7
sS'bonus_squared'
p1979
g4
sS'total_stock_value_log'
p1980
g4
sS'long_term_incentive_squared'
p1981
g4
sS'salary_squared'
p1982
g4
sg36
I200000
sS'expenses_squared'
p1983
g4
sg38
I3064208
sg39
g7
sS'deferral_payments_squared'
p1984
g4
sS'deferral_payments_log'
p1985
g4
sS'other_log'
p1986
g4
sg43
g7
sS'restricted_stock_deferred_squared'
p1987
g4
sS'total_payments_log'
p1988
g4
sS'director_fees_squared'
p1989
g4
sg47
I514847
sS'long_term_incentive_log'
p1990
g4
sg49
I236457
sg50
I875889
sg51
I2549361
sS'loan_advances_squared'
p1991
g4
sS'total_stock_value_squared'
p1992
g4
sS'other_squared'
p1993
g4
sS'loan_advances_log'
p1994
g4
sS'deferred_income_log'
p1995
g4
ssS'MEYER JEROME J'
p1996
(dp1997
S'expenses_log'
p1998
g4
sg5
g7
sg6
g7
sS'bonus_log'
p1999
g4
sS'director_fees_log'
p2000
g4
sS'restricted_stock_squared'
p2001
g4
sg11
I2151
sS'total_payments_squared'
p2002
g4
sg13
I00
sg14
I-38346
sS'restricted_stock_log'
p2003
g4
sg16
g7
sg18
g7
sS'exercised_stock_options_squared'
p2004
g4
sS'restricted_stock_deferred_log'
p2005
g4
sS'salary_log'
p2006
g4
sS'deferred_income_squared'
p2007
g4
sg24
g7
sg25
g4
sg26
g7
sg27
g7
sg28
g7
sg29
g7
sS'exercised_stock_options_log'
p2008
g4
sg31
I38346
sS'bonus_squared'
p2009
g4
sS'total_stock_value_log'
p2010
g4
sS'long_term_incentive_squared'
p2011
g4
sS'salary_squared'
p2012
g4
sg36
g7
sS'expenses_squared'
p2013
g4
sg38
g7
sg39
g7
sS'deferral_payments_squared'
p2014
g4
sS'deferral_payments_log'
p2015
g4
sS'other_log'
p2016
g4
sg43
g7
sS'restricted_stock_deferred_squared'
p2017
g4
sS'total_payments_log'
p2018
g4
sS'director_fees_squared'
p2019
g4
sg47
g7
sS'long_term_incentive_log'
p2020
g4
sg49
g7
sg50
I2151
sg51
g7
sS'loan_advances_squared'
p2021
g4
sS'total_stock_value_squared'
p2022
g4
sS'other_squared'
p2023
g4
sS'loan_advances_log'
p2024
g4
sS'deferred_income_log'
p2025
g4
ssS'LAY KENNETH L'
p2026
(dp2027
S'expenses_log'
p2028
g4
sg5
I4273
sg6
I202911
sS'bonus_log'
p2029
g4
sS'director_fees_log'
p2030
g4
sS'restricted_stock_squared'
p2031
g4
sg11
I99832
sS'total_payments_squared'
p2032
g4
sg13
I01
sg14
I-300000
sg15
F0.35020905636041855
sg16
S'kenneth.lay@enron.com'
p2033
sg18
I3600000
sS'restricted_stock_log'
p2034
g4
sS'restricted_stock_deferred_log'
p2035
g4
sS'salary_log'
p2036
g4
sS'exercised_stock_options_squared'
p2037
g4
sS'deferred_income_squared'
p2038
g4
sg24
g7
sg25
F0.5917846368066837
sg26
I2411
sg27
I81525000
sg28
I36
sg29
I10359729
sS'exercised_stock_options_log'
p2039
g4
sg31
g7
sS'bonus_squared'
p2040
g4
sS'total_stock_value_log'
p2041
g4
sS'long_term_incentive_squared'
p2042
g4
sS'salary_squared'
p2043
g4
sg36
I7000000
sS'expenses_squared'
p2044
g4
sg38
I49110078
sg39
I123
sS'deferral_payments_squared'
p2045
g4
sS'deferral_payments_log'
p2046
g4
sS'other_log'
p2047
g4
sg43
I16
sS'restricted_stock_deferred_squared'
p2048
g4
sS'total_payments_log'
p2049
g4
sS'director_fees_squared'
p2050
g4
sg47
I14761694
sS'long_term_incentive_log'
p2051
g4
sg49
I1072321
sg50
I103559793
sg51
I34348384
sS'loan_advances_squared'
p2052
g4
sS'total_stock_value_squared'
p2053
g4
sS'other_squared'
p2054
g4
sS'loan_advances_log'
p2055
g4
sS'deferred_income_log'
p2056
g4
ssS'BUTTS ROBERT H'
p2057
(dp2058
S'expenses_log'
p2059
g4
sg5
g7
sg6
g7
sS'bonus_log'
p2060
g4
sS'director_fees_log'
p2061
g4
sS'restricted_stock_squared'
p2062
g4
sg11
I9410
sS'total_payments_squared'
p2063
g4
sg13
I00
sg14
I-75000
sS'restricted_stock_log'
p2064
g4
sg16
S'bob.butts@enron.com'
p2065
sg18
I175000
sS'exercised_stock_options_squared'
p2066
g4
sS'restricted_stock_deferred_log'
p2067
g4
sS'salary_log'
p2068
g4
sS'deferred_income_squared'
p2069
g4
sg24
g7
sg25
g4
sg26
g7
sg27
g7
sg28
g7
sg29
I150656
sS'exercised_stock_options_log'
p2070
g4
sg31
g7
sS'bonus_squared'
p2071
g4
sS'total_stock_value_log'
p2072
g4
sS'long_term_incentive_squared'
p2073
g4
sS'salary_squared'
p2074
g4
sg36
I750000
sS'expenses_squared'
p2075
g4
sg38
I417619
sg39
g7
sS'deferral_payments_squared'
p2076
g4
sS'deferral_payments_log'
p2077
g4
sS'other_log'
p2078
g4
sg43
g7
sS'restricted_stock_deferred_squared'
p2079
g4
sS'total_payments_log'
p2080
g4
sS'director_fees_squared'
p2081
g4
sg47
I417619
sS'long_term_incentive_log'
p2082
g4
sg49
I261516
sg50
I1271582
sg51
g7
sS'loan_advances_squared'
p2083
g4
sS'total_stock_value_squared'
p2084
g4
sS'other_squared'
p2085
g4
sS'loan_advances_log'
p2086
g4
sS'deferred_income_log'
p2087
g4
ssS'OLSON CINDY K'
p2088
(dp2089
S'expenses_log'
p2090
g4
sg5
I1184
sg6
I77716
sS'bonus_log'
p2091
g4
sS'director_fees_log'
p2092
g4
sS'restricted_stock_squared'
p2093
g4
sg11
I63791
sS'total_payments_squared'
p2094
g4
sg13
I00
sg14
g7
sg15
F0.5196590159298708
sg16
S'cindy.olson@enron.com'
p2095
sg18
I100000
sS'restricted_stock_log'
p2096
g4
sS'restricted_stock_deferred_log'
p2097
g4
sS'salary_log'
p2098
g4
sS'exercised_stock_options_squared'
p2099
g4
sS'deferred_income_squared'
p2100
g4
sg24
g7
sg25
F0.720873786407767
sg26
I856
sg27
g7
sg28
I52
sg29
I972
sS'exercised_stock_options_log'
p2101
g4
sg31
g7
sS'bonus_squared'
p2102
g4
sS'total_stock_value_log'
p2103
g4
sS'long_term_incentive_squared'
p2104
g4
sS'salary_squared'
p2105
g4
sg36
I750000
sS'expenses_squared'
p2106
g4
sg38
I2606763
sg39
I20
sS'deferral_payments_squared'
p2107
g4
sS'deferral_payments_log'
p2108
g4
sS'other_log'
p2109
g4
sg43
I15
sS'restricted_stock_deferred_squared'
p2110
g4
sS'total_payments_log'
p2111
g4
sS'director_fees_squared'
p2112
g4
sg47
I969729
sS'long_term_incentive_log'
p2113
g4
sg49
I329078
sg50
I1321557
sg51
I1637034
sS'loan_advances_squared'
p2114
g4
sS'total_stock_value_squared'
p2115
g4
sS'other_squared'
p2116
g4
sS'loan_advances_log'
p2117
g4
sS'deferred_income_log'
p2118
g4
ssS'MCDONALD REBECCA'
p2119
(dp2120
S'expenses_log'
p2121
g4
sg5
I894
sg6
g7
sS'bonus_log'
p2122
g4
sS'director_fees_log'
p2123
g4
sS'restricted_stock_squared'
p2124
g4
sg11
g7
sS'total_payments_squared'
p2125
g4
sg13
I00
sg14
g7
sg15
F0.7301108978434302
sg16
S'rebecca.mcdonald@enron.com'
p2126
sg18
g7
sS'restricted_stock_log'
p2127
g4
sS'restricted_stock_deferred_log'
p2128
g4
sS'salary_log'
p2129
g4
sS'exercised_stock_options_squared'
p2130
g4
sS'deferred_income_squared'
p2131
g4
sg24
g7
sg25
F0.8544652701212789
sg26
I720
sg27
g7
sg28
I13
sg29
g7
sS'exercised_stock_options_log'
p2132
g4
sg31
g7
sS'bonus_squared'
p2133
g4
sS'total_stock_value_log'
p2134
g4
sS'long_term_incentive_squared'
p2135
g4
sS'salary_squared'
p2136
g4
sg36
g7
sS'expenses_squared'
p2137
g4
sg38
I1691366
sg39
I54
sS'deferral_payments_squared'
p2138
g4
sS'deferral_payments_log'
p2139
g4
sS'other_log'
p2140
g4
sg43
I1
sS'restricted_stock_deferred_squared'
p2141
g4
sS'total_payments_log'
p2142
g4
sS'director_fees_squared'
p2143
g4
sg47
I934065
sS'long_term_incentive_log'
p2144
g4
sg49
g7
sg50
g7
sg51
I757301
sS'loan_advances_squared'
p2145
g4
sS'total_stock_value_squared'
p2146
g4
sS'other_squared'
p2147
g4
sS'loan_advances_log'
p2148
g4
sS'deferred_income_log'
p2149
g4
ssS'CUMBERLAND MICHAEL S'
p2150
(dp2151
S'expenses_log'
p2152
g4
sg5
g7
sg6
g7
sS'bonus_log'
p2153
g4
sS'director_fees_log'
p2154
g4
sS'restricted_stock_squared'
p2155
g4
sg11
I22344
sS'total_payments_squared'
p2156
g4
sg13
I00
sg14
g7
sS'restricted_stock_log'
p2157
g4
sg16
g7
sg18
I275000
sS'exercised_stock_options_squared'
p2158
g4
sS'restricted_stock_deferred_log'
p2159
g4
sS'salary_log'
p2160
g4
sS'deferred_income_squared'
p2161
g4
sg24
g7
sg25
g4
sg26
g7
sg27
g7
sg28
g7
sg29
I713
sS'exercised_stock_options_log'
p2162
g4
sg31
g7
sS'bonus_squared'
p2163
g4
sS'total_stock_value_log'
p2164
g4
sS'long_term_incentive_squared'
p2165
g4
sS'salary_squared'
p2166
g4
sg36
I325000
sS'expenses_squared'
p2167
g4
sg38
I207940
sg39
g7
sS'deferral_payments_squared'
p2168
g4
sS'deferral_payments_log'
p2169
g4
sS'other_log'
p2170
g4
sg43
g7
sS'restricted_stock_deferred_squared'
p2171
g4
sS'total_payments_log'
p2172
g4
sS'director_fees_squared'
p2173
g4
sg47
I207940
sS'long_term_incentive_log'
p2174
g4
sg49
I184899
sg50
I807956
sg51
g7
sS'loan_advances_squared'
p2175
g4
sS'total_stock_value_squared'
p2176
g4
sS'other_squared'
p2177
g4
sS'loan_advances_log'
p2178
g4
sS'deferred_income_log'
p2179
g4
ssS'GAHN ROBERT S'
p2180
(dp2181
S'expenses_log'
p2182
g4
sg5
g7
sg6
I73122
sS'bonus_log'
p2183
g4
sS'director_fees_log'
p2184
g4
sS'restricted_stock_squared'
p2185
g4
sg11
I50080
sS'total_payments_squared'
p2186
g4
sg13
I00
sg14
I-1042
sS'restricted_stock_log'
p2187
g4
sg16
g7
sg18
g7
sS'exercised_stock_options_squared'
p2188
g4
sS'restricted_stock_deferred_log'
p2189
g4
sS'salary_log'
p2190
g4
sS'deferred_income_squared'
p2191
g4
sg24
g7
sg25
g4
sg26
g7
sg27
g7
sg28
g7
sg29
I76547
sS'exercised_stock_options_log'
p2192
g4
sg31
g7
sS'bonus_squared'
p2193
g4
sS'total_stock_value_log'
p2194
g4
sS'long_term_incentive_squared'
p2195
g4
sS'salary_squared'
p2196
g4
sg36
I509870
sS'expenses_squared'
p2197
g4
sg38
I318607
sg39
g7
sS'deferral_payments_squared'
p2198
g4
sS'deferral_payments_log'
p2199
g4
sS'other_log'
p2200
g4
sg43
g7
sS'restricted_stock_deferred_squared'
p2201
g4
sS'total_payments_log'
p2202
g4
sS'director_fees_squared'
p2203
g4
sg47
I235370
sS'long_term_incentive_log'
p2204
g4
sg49
I192008
sg50
I900585
sg51
I83237
sS'loan_advances_squared'
p2205
g4
sS'total_stock_value_squared'
p2206
g4
sS'other_squared'
p2207
g4
sS'loan_advances_log'
p2208
g4
sS'deferred_income_log'
p2209
g4
ssS'MCCLELLAN GEORGE'
p2210
(dp2211
S'expenses_log'
p2212
g4
sg5
I1744
sg6
g7
sS'bonus_log'
p2213
g4
sS'director_fees_log'
p2214
g4
sS'restricted_stock_squared'
p2215
g4
sg11
I228763
sS'total_payments_squared'
p2216
g4
sg13
I00
sg14
I-125000
sg15
F0.7196110921539394
sg16
S'george.mcclellan@enron.com'
p2217
sg18
g7
sS'restricted_stock_log'
p2218
g4
sS'restricted_stock_deferred_log'
p2219
g4
sS'salary_log'
p2220
g4
sS'exercised_stock_options_squared'
p2221
g4
sS'deferred_income_squared'
p2222
g4
sg24
g7
sg25
F0.8482989403234802
sg26
I1469
sg27
g7
sg28
I49
sg29
I51587
sS'exercised_stock_options_log'
p2223
g4
sg31
g7
sS'bonus_squared'
p2224
g4
sS'total_stock_value_log'
p2225
g4
sS'long_term_incentive_squared'
p2226
g4
sS'salary_squared'
p2227
g4
sg36
I900000
sS'expenses_squared'
p2228
g4
sg38
I947861
sg39
I52
sS'deferral_payments_squared'
p2229
g4
sS'deferral_payments_log'
p2230
g4
sS'other_log'
p2231
g4
sg43
I0
sS'restricted_stock_deferred_squared'
p2232
g4
sS'total_payments_log'
p2233
g4
sS'director_fees_squared'
p2234
g4
sg47
I441096
sS'long_term_incentive_log'
p2235
g4
sg49
I263413
sg50
I1318763
sg51
I506765
sS'loan_advances_squared'
p2236
g4
sS'total_stock_value_squared'
p2237
g4
sS'other_squared'
p2238
g4
sS'loan_advances_log'
p2239
g4
sS'deferred_income_log'
p2240
g4
ssS'HERMANN ROBERT J'
p2241
(dp2242
S'expenses_log'
p2243
g4
sg5
g7
sg6
g7
sS'bonus_log'
p2244
g4
sS'director_fees_log'
p2245
g4
sS'restricted_stock_squared'
p2246
g4
sg11
I48357
sS'total_payments_squared'
p2247
g4
sg13
I00
sg14
I-280000
sS'restricted_stock_log'
p2248
g4
sg16
S'robert.hermann@enron.com'
p2249
sg18
I150000
sS'exercised_stock_options_squared'
p2250
g4
sS'restricted_stock_deferred_log'
p2251
g4
sS'salary_log'
p2252
g4
sS'deferred_income_squared'
p2253
g4
sg24
g7
sg25
g4
sg26
g7
sg27
g7
sg28
g7
sg29
I416441
sS'exercised_stock_options_log'
p2254
g4
sg31
g7
sS'bonus_squared'
p2255
g4
sS'total_stock_value_log'
p2256
g4
sS'long_term_incentive_squared'
p2257
g4
sS'salary_squared'
p2258
g4
sg36
I700000
sS'expenses_squared'
p2259
g4
sg38
I668132
sg39
g7
sS'deferral_payments_squared'
p2260
g4
sS'deferral_payments_log'
p2261
g4
sS'other_log'
p2262
g4
sg43
g7
sS'restricted_stock_deferred_squared'
p2263
g4
sS'total_payments_log'
p2264
g4
sS'director_fees_squared'
p2265
g4
sg47
I480632
sS'long_term_incentive_log'
p2266
g4
sg49
I262663
sg50
I1297461
sg51
I187500
sS'loan_advances_squared'
p2267
g4
sS'total_stock_value_squared'
p2268
g4
sS'other_squared'
p2269
g4
sS'loan_advances_log'
p2270
g4
sS'deferred_income_log'
p2271
g4
ssS'SCRIMSHAW MATTHEW'
p2272
(dp2273
S'expenses_log'
p2274
g4
sg5
g7
sg6
g7
sS'bonus_log'
p2275
g4
sS'director_fees_log'
p2276
g4
sS'restricted_stock_squared'
p2277
g4
sg11
g7
sS'total_payments_squared'
p2278
g4
sg13
I00
sg14
g7
sS'restricted_stock_log'
p2279
g4
sg16
S'matthew.scrimshaw@enron.com'
p2280
sg18
g7
sS'exercised_stock_options_squared'
p2281
g4
sS'restricted_stock_deferred_log'
p2282
g4
sS'salary_log'
p2283
g4
sS'deferred_income_squared'
p2284
g4
sg24
g7
sg25
g4
sg26
g7
sg27
g7
sg28
g7
sg29
g7
sS'exercised_stock_options_log'
p2285
g4
sg31
g7
sS'bonus_squared'
p2286
g4
sS'total_stock_value_log'
p2287
g4
sS'long_term_incentive_squared'
p2288
g4
sS'salary_squared'
p2289
g4
sg36
g7
sS'expenses_squared'
p2290
g4
sg38
I759557
sg39
g7
sS'deferral_payments_squared'
p2291
g4
sS'deferral_payments_log'
p2292
g4
sS'other_log'
p2293
g4
sg43
g7
sS'restricted_stock_deferred_squared'
p2294
g4
sS'total_payments_log'
p2295
g4
sS'director_fees_squared'
p2296
g4
sg47
g7
sS'long_term_incentive_log'
p2297
g4
sg49
g7
sg50
g7
sg51
I759557
sS'loan_advances_squared'
p2298
g4
sS'total_stock_value_squared'
p2299
g4
sS'other_squared'
p2300
g4
sS'loan_advances_log'
p2301
g4
sS'deferred_income_log'
p2302
g4
ssS'GATHMANN WILLIAM D'
p2303
(dp2304
S'expenses_log'
p2305
g4
sg5
g7
sg6
g7
sS'bonus_log'
p2306
g4
sS'director_fees_log'
p2307
g4
sS'restricted_stock_squared'
p2308
g4
sg11
g7
sS'total_payments_squared'
p2309
g4
sg13
I00
sg14
g7
sS'restricted_stock_log'
p2310
g4
sg16
g7
sg18
g7
sS'exercised_stock_options_squared'
p2311
g4
sS'restricted_stock_deferred_log'
p2312
g4
sS'salary_log'
p2313
g4
sS'deferred_income_squared'
p2314
g4
sg24
I-72419
sg25
g4
sg26
g7
sg27
g7
sg28
g7
sg29
g7
sS'exercised_stock_options_log'
p2315
g4
sg31
g7
sS'bonus_squared'
p2316
g4
sS'total_stock_value_log'
p2317
g4
sS'long_term_incentive_squared'
p2318
g4
sS'salary_squared'
p2319
g4
sg36
g7
sS'expenses_squared'
p2320
g4
sg38
I1945360
sg39
g7
sS'deferral_payments_squared'
p2321
g4
sS'deferral_payments_log'
p2322
g4
sS'other_log'
p2323
g4
sg43
g7
sS'restricted_stock_deferred_squared'
p2324
g4
sS'total_payments_log'
p2325
g4
sS'director_fees_squared'
p2326
g4
sg47
I264013
sS'long_term_incentive_log'
p2327
g4
sg49
g7
sg50
g7
sg51
I1753766
sS'loan_advances_squared'
p2328
g4
sS'total_stock_value_squared'
p2329
g4
sS'other_squared'
p2330
g4
sS'loan_advances_log'
p2331
g4
sS'deferred_income_log'
p2332
g4
ssS'HAEDICKE MARK E'
p2333
(dp2334
S'expenses_log'
p2335
g4
sg5
I4009
sg6
I2157527
sS'bonus_log'
p2336
g4
sS'director_fees_log'
p2337
g4
sS'restricted_stock_squared'
p2338
g4
sg11
I76169
sS'total_payments_squared'
p2339
g4
sg13
I00
sg14
I-934484
sg15
F0.12314791328296024
sg16
S'mark.haedicke@enron.com'
p2340
sg18
I983346
sS'restricted_stock_log'
p2341
g4
sS'restricted_stock_deferred_log'
p2342
g4
sS'salary_log'
p2343
g4
sS'exercised_stock_options_squared'
p2344
g4
sS'deferred_income_squared'
p2345
g4
sg24
I-329825
sg25
F0.35092436974789915
sg26
I1847
sg27
g7
sg28
I1941
sg29
I52382
sS'exercised_stock_options_log'
p2346
g4
sg31
g7
sS'bonus_squared'
p2347
g4
sS'total_stock_value_log'
p2348
g4
sS'long_term_incentive_squared'
p2349
g4
sS'salary_squared'
p2350
g4
sg36
I1150000
sS'expenses_squared'
p2351
g4
sg38
I803094
sg39
I180
sS'deferral_payments_squared'
p2352
g4
sS'deferral_payments_log'
p2353
g4
sS'other_log'
p2354
g4
sg43
I61
sS'restricted_stock_deferred_squared'
p2355
g4
sS'total_payments_log'
p2356
g4
sS'director_fees_squared'
p2357
g4
sg47
I524169
sS'long_term_incentive_log'
p2358
g4
sg49
I374125
sg50
I3859065
sg51
I608750
sS'loan_advances_squared'
p2359
g4
sS'total_stock_value_squared'
p2360
g4
sS'other_squared'
p2361
g4
sS'loan_advances_log'
p2362
g4
sS'deferred_income_log'
p2363
g4
ssS'BOWEN JR RAYMOND M'
p2364
(dp2365
S'expenses_log'
p2366
g4
sg5
I1858
sg6
g7
sS'bonus_log'
p2367
g4
sS'director_fees_log'
p2368
g4
sS'restricted_stock_squared'
p2369
g4
sg11
I65907
sS'total_payments_squared'
p2370
g4
sg13
I01
sg14
I-833
sg15
F0.8599241534099304
sg16
S'raymond.bowen@enron.com'
p2371
sg18
I974293
sS'restricted_stock_log'
p2372
g4
sS'restricted_stock_deferred_log'
p2373
g4
sS'salary_log'
p2374
g4
sS'exercised_stock_options_squared'
p2375
g4
sS'deferred_income_squared'
p2376
g4
sg24
g7
sg25
F0.9273209549071618
sg26
I1593
sg27
g7
sg28
I27
sg29
I1621
sS'exercised_stock_options_log'
p2377
g4
sg31
g7
sS'bonus_squared'
p2378
g4
sS'total_stock_value_log'
p2379
g4
sS'long_term_incentive_squared'
p2380
g4
sS'salary_squared'
p2381
g4
sg36
I1350000
sS'expenses_squared'
p2382
g4
sg38
I252055
sg39
I140
sS'deferral_payments_squared'
p2383
g4
sS'deferral_payments_log'
p2384
g4
sS'other_log'
p2385
g4
sg43
I15
sS'restricted_stock_deferred_squared'
p2386
g4
sS'total_payments_log'
p2387
g4
sS'director_fees_squared'
p2388
g4
sg47
I252055
sS'long_term_incentive_log'
p2389
g4
sg49
I278601
sg50
I2669589
sg51
g7
sS'loan_advances_squared'
p2390
g4
sS'total_stock_value_squared'
p2391
g4
sS'other_squared'
p2392
g4
sS'loan_advances_log'
p2393
g4
sS'deferred_income_log'
p2394
g4
ssS'GILLIS JOHN'
p2395
(dp2396
S'expenses_log'
p2397
g4
sg5
g7
sg6
g7
sS'bonus_log'
p2398
g4
sS'director_fees_log'
p2399
g4
sS'restricted_stock_squared'
p2400
g4
sg11
g7
sS'total_payments_squared'
p2401
g4
sg13
I00
sg14
g7
sS'restricted_stock_log'
p2402
g4
sg16
g7
sg18
g7
sS'exercised_stock_options_squared'
p2403
g4
sS'restricted_stock_deferred_log'
p2404
g4
sS'salary_log'
p2405
g4
sS'deferred_income_squared'
p2406
g4
sg24
g7
sg25
g4
sg26
g7
sg27
g7
sg28
g7
sg29
g7
sS'exercised_stock_options_log'
p2407
g4
sg31
g7
sS'bonus_squared'
p2408
g4
sS'total_stock_value_log'
p2409
g4
sS'long_term_incentive_squared'
p2410
g4
sS'salary_squared'
p2411
g4
sg36
g7
sS'expenses_squared'
p2412
g4
sg38
I85641
sg39
g7
sS'deferral_payments_squared'
p2413
g4
sS'deferral_payments_log'
p2414
g4
sS'other_log'
p2415
g4
sg43
g7
sS'restricted_stock_deferred_squared'
p2416
g4
sS'total_payments_log'
p2417
g4
sS'director_fees_squared'
p2418
g4
sg47
I75838
sS'long_term_incentive_log'
p2419
g4
sg49
g7
sg50
g7
sg51
I9803
sS'loan_advances_squared'
p2420
g4
sS'total_stock_value_squared'
p2421
g4
sS'other_squared'
p2422
g4
sS'loan_advances_log'
p2423
g4
sS'deferred_income_log'
p2424
g4
ssS'FITZGERALD JAY L'
p2425
(dp2426
S'expenses_log'
p2427
g4
sg5
I936
sg6
g7
sS'bonus_log'
p2428
g4
sS'director_fees_log'
p2429
g4
sS'restricted_stock_squared'
p2430
g4
sg11
I23870
sS'total_payments_squared'
p2431
g4
sg13
I00
sg14
g7
sg15
F0.5912188404773675
sg16
S'jay.fitzgerald@enron.com'
p2432
sg18
I556416
sS'restricted_stock_log'
p2433
g4
sS'restricted_stock_deferred_log'
p2434
g4
sS'salary_log'
p2435
g4
sS'exercised_stock_options_squared'
p2436
g4
sS'deferred_income_squared'
p2437
g4
sg24
g7
sg25
F0.7689075630252101
sg26
I723
sg27
g7
sg28
I16
sg29
I285414
sS'exercised_stock_options_log'
p2438
g4
sg31
g7
sS'bonus_squared'
p2439
g4
sS'total_stock_value_log'
p2440
g4
sS'long_term_incentive_squared'
p2441
g4
sS'salary_squared'
p2442
g4
sg36
I350000
sS'expenses_squared'
p2443
g4
sg38
I1621236
sg39
I1
sS'deferral_payments_squared'
p2444
g4
sS'deferral_payments_log'
p2445
g4
sS'other_log'
p2446
g4
sg43
I8
sS'restricted_stock_deferred_squared'
p2447
g4
sS'total_payments_log'
p2448
g4
sS'director_fees_squared'
p2449
g4
sg47
I956775
sS'long_term_incentive_log'
p2450
g4
sg49
I199157
sg50
I1414857
sg51
I664461
sS'loan_advances_squared'
p2451
g4
sS'total_stock_value_squared'
p2452
g4
sS'other_squared'
p2453
g4
sS'loan_advances_log'
p2454
g4
sS'deferred_income_log'
p2455
g4
ssS'MORAN MICHAEL P'
p2456
(dp2457
S'expenses_log'
p2458
g4
sg5
I672
sg6
g7
sS'bonus_log'
p2459
g4
sS'director_fees_log'
p2460
g4
sS'restricted_stock_squared'
p2461
g4
sg11
g7
sS'total_payments_squared'
p2462
g4
sg13
I00
sg14
g7
sg15
F0.03377935457117665
sg16
S'michael.moran@enron.com'
p2463
sg18
g7
sS'restricted_stock_log'
p2464
g4
sS'restricted_stock_deferred_log'
p2465
g4
sS'salary_log'
p2466
g4
sS'exercised_stock_options_squared'
p2467
g4
sS'deferred_income_squared'
p2468
g4
sg24
g7
sg25
F0.1837916063675832
sg26
I127
sg27
g7
sg28
I19
sg29
g7
sS'exercised_stock_options_log'
p2469
g4
sg31
g7
sS'bonus_squared'
p2470
g4
sS'total_stock_value_log'
p2471
g4
sS'long_term_incentive_squared'
p2472
g4
sS'salary_squared'
p2473
g4
sg36
g7
sS'expenses_squared'
p2474
g4
sg38
I221141
sg39
I0
sS'deferral_payments_squared'
p2475
g4
sS'deferral_payments_log'
p2476
g4
sS'other_log'
p2477
g4
sg43
I0
sS'restricted_stock_deferred_squared'
p2478
g4
sS'total_payments_log'
p2479
g4
sS'director_fees_squared'
p2480
g4
sg47
I161602
sS'long_term_incentive_log'
p2481
g4
sg49
g7
sg50
g7
sg51
I59539
sS'loan_advances_squared'
p2482
g4
sS'total_stock_value_squared'
p2483
g4
sS'other_squared'
p2484
g4
sS'loan_advances_log'
p2485
g4
sS'deferred_income_log'
p2486
g4
ssS'REDMOND BRIAN L'
p2487
(dp2488
S'expenses_log'
p2489
g4
sg5
I1671
sg6
g7
sS'bonus_log'
p2490
g4
sS'director_fees_log'
p2491
g4
sS'restricted_stock_squared'
p2492
g4
sg11
I14689
sS'total_payments_squared'
p2493
g4
sg13
I00
sg14
g7
sg15
F0.48380406652691427
sg16
S'brian.redmond@enron.com'
p2494
sg18
g7
sS'restricted_stock_log'
p2495
g4
sS'restricted_stock_deferred_log'
p2496
g4
sS'salary_log'
p2497
g4
sS'exercised_stock_options_squared'
p2498
g4
sS'deferred_income_squared'
p2499
g4
sg24
g7
sg25
F0.6955602536997886
sg26
I1063
sg27
g7
sg28
I221
sg29
g7
sS'exercised_stock_options_log'
p2500
g4
sg31
g7
sS'bonus_squared'
p2501
g4
sS'total_stock_value_log'
p2502
g4
sS'long_term_incentive_squared'
p2503
g4
sS'salary_squared'
p2504
g4
sg36
g7
sS'expenses_squared'
p2505
g4
sg38
I7890324
sg39
I204
sS'deferral_payments_squared'
p2506
g4
sS'deferral_payments_log'
p2507
g4
sS'other_log'
p2508
g4
sg43
I49
sS'restricted_stock_deferred_squared'
p2509
g4
sS'total_payments_log'
p2510
g4
sS'director_fees_squared'
p2511
g4
sg47
I381285
sS'long_term_incentive_log'
p2512
g4
sg49
I96840
sg50
I111529
sg51
I7509039
sS'loan_advances_squared'
p2513
g4
sS'total_stock_value_squared'
p2514
g4
sS'other_squared'
p2515
g4
sS'loan_advances_log'
p2516
g4
sS'deferred_income_log'
p2517
g4
ssS'BAZELIDES PHILIP J'
p2518
(dp2519
S'expenses_log'
p2520
g4
sg5
g7
sg6
I684694
sS'bonus_log'
p2521
g4
sS'director_fees_log'
p2522
g4
sS'restricted_stock_squared'
p2523
g4
sg11
g7
sS'total_payments_squared'
p2524
g4
sg13
I00
sg14
g7
sS'restricted_stock_log'
p2525
g4
sg16
g7
sg18
I93750
sS'exercised_stock_options_squared'
p2526
g4
sS'restricted_stock_deferred_log'
p2527
g4
sS'salary_log'
p2528
g4
sS'deferred_income_squared'
p2529
g4
sg24
g7
sg25
g4
sg26
g7
sg27
g7
sg28
g7
sg29
I874
sS'exercised_stock_options_log'
p2530
g4
sg31
g7
sS'bonus_squared'
p2531
g4
sS'total_stock_value_log'
p2532
g4
sS'long_term_incentive_squared'
p2533
g4
sS'salary_squared'
p2534
g4
sg36
g7
sS'expenses_squared'
p2535
g4
sg38
I1599641
sg39
g7
sS'deferral_payments_squared'
p2536
g4
sS'deferral_payments_log'
p2537
g4
sS'other_log'
p2538
g4
sg43
g7
sS'restricted_stock_deferred_squared'
p2539
g4
sS'total_payments_log'
p2540
g4
sS'director_fees_squared'
p2541
g4
sg47
g7
sS'long_term_incentive_log'
p2542
g4
sg49
I80818
sg50
I860136
sg51
I1599641
sS'loan_advances_squared'
p2543
g4
sS'total_stock_value_squared'
p2544
g4
sS'other_squared'
p2545
g4
sS'loan_advances_log'
p2546
g4
sS'deferred_income_log'
p2547
g4
ssS'BELDEN TIMOTHY N'
p2548
(dp2549
S'expenses_log'
p2550
g4
sg5
I7991
sg6
I2144013
sS'bonus_log'
p2551
g4
sS'director_fees_log'
p2552
g4
sS'restricted_stock_squared'
p2553
g4
sg11
I17355
sS'total_payments_squared'
p2554
g4
sg13
I01
sg14
I-2334434
sg15
F0.4776073859433872
sg16
S'tim.belden@enron.com'
p2555
sg18
g7
sS'restricted_stock_log'
p2556
g4
sS'restricted_stock_deferred_log'
p2557
g4
sS'salary_log'
p2558
g4
sS'exercised_stock_options_squared'
p2559
g4
sS'deferred_income_squared'
p2560
g4
sg24
g7
sg25
F0.6910914454277286
sg26
I5521
sg27
g7
sg28
I484
sg29
I210698
sS'exercised_stock_options_log'
p2561
g4
sg31
g7
sS'bonus_squared'
p2562
g4
sS'total_stock_value_log'
p2563
g4
sS'long_term_incentive_squared'
p2564
g4
sS'salary_squared'
p2565
g4
sg36
I5249999
sS'expenses_squared'
p2566
g4
sg38
I1110705
sg39
I228
sS'deferral_payments_squared'
p2567
g4
sS'deferral_payments_log'
p2568
g4
sS'other_log'
p2569
g4
sg43
I108
sS'restricted_stock_deferred_squared'
p2570
g4
sS'total_payments_log'
p2571
g4
sS'director_fees_squared'
p2572
g4
sg47
I157569
sS'long_term_incentive_log'
p2573
g4
sg49
I213999
sg50
I5501630
sg51
I953136
sS'loan_advances_squared'
p2574
g4
sS'total_stock_value_squared'
p2575
g4
sS'other_squared'
p2576
g4
sS'loan_advances_log'
p2577
g4
sS'deferred_income_log'
p2578
g4
ssS'DURAN WILLIAM D'
p2579
(dp2580
S'expenses_log'
p2581
g4
sg5
I904
sg6
g7
sS'bonus_log'
p2582
g4
sS'director_fees_log'
p2583
g4
sS'restricted_stock_squared'
p2584
g4
sg11
I25785
sS'total_payments_squared'
p2585
g4
sg13
I00
sg14
g7
sg15
F0.5974142369520032
sg16
S'w.duran@enron.com'
p2586
sg18
I1105218
sS'restricted_stock_log'
p2587
g4
sS'restricted_stock_deferred_log'
p2588
g4
sS'salary_log'
p2589
g4
sS'exercised_stock_options_squared'
p2590
g4
sS'deferred_income_squared'
p2591
g4
sg24
g7
sg25
F0.7729257641921398
sg26
I599
sg27
g7
sg28
I12
sg29
I1568
sS'exercised_stock_options_log'
p2592
g4
sg31
g7
sS'bonus_squared'
p2593
g4
sS'total_stock_value_log'
p2594
g4
sS'long_term_incentive_squared'
p2595
g4
sS'salary_squared'
p2596
g4
sg36
I750000
sS'expenses_squared'
p2597
g4
sg38
I1640910
sg39
I106
sS'deferral_payments_squared'
p2598
g4
sS'deferral_payments_log'
p2599
g4
sS'other_log'
p2600
g4
sg43
I3
sS'restricted_stock_deferred_squared'
p2601
g4
sS'total_payments_log'
p2602
g4
sS'director_fees_squared'
p2603
g4
sg47
I189041
sS'long_term_incentive_log'
p2604
g4
sg49
I210692
sg50
I2093263
sg51
I1451869
sS'loan_advances_squared'
p2605
g4
sS'total_stock_value_squared'
p2606
g4
sS'other_squared'
p2607
g4
sS'loan_advances_log'
p2608
g4
sS'deferred_income_log'
p2609
g4
ssS'THORN TERENCE H'
p2610
(dp2611
S'expenses_log'
p2612
g4
sg5
I266
sg6
I16586
sS'bonus_log'
p2613
g4
sS'director_fees_log'
p2614
g4
sS'restricted_stock_squared'
p2615
g4
sg11
I46145
sS'total_payments_squared'
p2616
g4
sg13
I00
sg14
g7
sg15
F0.05654171397044
sg16
S'terence.thorn@enron.com'
p2617
sg18
I200000
sS'restricted_stock_log'
p2618
g4
sS'restricted_stock_deferred_log'
p2619
g4
sS'salary_log'
p2620
g4
sS'exercised_stock_options_squared'
p2621
g4
sS'deferred_income_squared'
p2622
g4
sg24
g7
sg25
F0.23778501628664495
sg26
I73
sg27
g7
sg28
I41
sg29
I426629
sS'exercised_stock_options_log'
p2623
g4
sg31
g7
sS'bonus_squared'
p2624
g4
sS'total_stock_value_log'
p2625
g4
sS'long_term_incentive_squared'
p2626
g4
sS'salary_squared'
p2627
g4
sg36
g7
sS'expenses_squared'
p2628
g4
sg38
I4817796
sg39
I0
sS'deferral_payments_squared'
p2629
g4
sS'deferral_payments_log'
p2630
g4
sS'other_log'
p2631
g4
sg43
I0
sS'restricted_stock_deferred_squared'
p2632
g4
sS'total_payments_log'
p2633
g4
sS'director_fees_squared'
p2634
g4
sg47
I365320
sS'long_term_incentive_log'
p2635
g4
sg49
I222093
sg50
I911453
sg51
I4452476
sS'loan_advances_squared'
p2636
g4
sS'total_stock_value_squared'
p2637
g4
sS'other_squared'
p2638
g4
sS'loan_advances_log'
p2639
g4
sS'deferred_income_log'
p2640
g4
ssS'FASTOW ANDREW S'
p2641
(dp2642
S'expenses_log'
p2643
g4
sg5
g7
sg6
g7
sS'bonus_log'
p2644
g4
sS'director_fees_log'
p2645
g4
sS'restricted_stock_squared'
p2646
g4
sg11
I55921
sS'total_payments_squared'
p2647
g4
sg13
I01
sg14
I-1386055
sS'restricted_stock_log'
p2648
g4
sg16
S'andrew.fastow@enron.com'
p2649
sg18
I1736055
sS'exercised_stock_options_squared'
p2650
g4
sS'restricted_stock_deferred_log'
p2651
g4
sS'salary_log'
p2652
g4
sS'deferred_income_squared'
p2653
g4
sg24
g7
sg25
g4
sg26
g7
sg27
g7
sg28
g7
sg29
I277464
sS'exercised_stock_options_log'
p2654
g4
sg31
g7
sS'bonus_squared'
p2655
g4
sS'total_stock_value_log'
p2656
g4
sS'long_term_incentive_squared'
p2657
g4
sS'salary_squared'
p2658
g4
sg36
I1300000
sS'expenses_squared'
p2659
g4
sg38
I1794412
sg39
g7
sS'deferral_payments_squared'
p2660
g4
sS'deferral_payments_log'
p2661
g4
sS'other_log'
p2662
g4
sg43
g7
sS'restricted_stock_deferred_squared'
p2663
g4
sS'total_payments_log'
p2664
g4
sS'director_fees_squared'
p2665
g4
sg47
I1794412
sS'long_term_incentive_log'
p2666
g4
sg49
I440698
sg50
I2424083
sg51
g7
sS'loan_advances_squared'
p2667
g4
sS'total_stock_value_squared'
p2668
g4
sS'other_squared'
p2669
g4
sS'loan_advances_log'
p2670
g4
sS'deferred_income_log'
p2671
g4
ssS'FOY JOE'
p2672
(dp2673
S'expenses_log'
p2674
g4
sg5
I57
sg6
I181755
sS'bonus_log'
p2675
g4
sS'director_fees_log'
p2676
g4
sS'restricted_stock_squared'
p2677
g4
sg11
g7
sS'total_payments_squared'
p2678
g4
sg13
I00
sg14
g7
sg15
F0.0008163265306122448
sg16
S'tracy.foy@enron.com'
p2679
sg18
g7
sS'restricted_stock_log'
p2680
g4
sS'restricted_stock_deferred_log'
p2681
g4
sS'salary_log'
p2682
g4
sS'exercised_stock_options_squared'
p2683
g4
sS'deferred_income_squared'
p2684
g4
sg24
g7
sg25
F0.02857142857142857
sg26
I2
sg27
g7
sg28
I13
sg29
g7
sS'exercised_stock_options_log'
p2685
g4
sg31
g7
sS'bonus_squared'
p2686
g4
sS'total_stock_value_log'
p2687
g4
sS'long_term_incentive_squared'
p2688
g4
sS'salary_squared'
p2689
g4
sg36
g7
sS'expenses_squared'
p2690
g4
sg38
I343434
sg39
I0
sS'deferral_payments_squared'
p2691
g4
sS'deferral_payments_log'
p2692
g4
sS'other_log'
p2693
g4
sg43
I0
sS'restricted_stock_deferred_squared'
p2694
g4
sS'total_payments_log'
p2695
g4
sS'director_fees_squared'
p2696
g4
sg47
g7
sS'long_term_incentive_log'
p2697
g4
sg49
g7
sg50
I181755
sg51
I343434
sS'loan_advances_squared'
p2698
g4
sS'total_stock_value_squared'
p2699
g4
sS'other_squared'
p2700
g4
sS'loan_advances_log'
p2701
g4
sS'deferred_income_log'
p2702
g4
ssS'CALGER CHRISTOPHER F'
p2703
(dp2704
S'expenses_log'
p2705
g4
sg5
I2598
sg6
g7
sS'bonus_log'
p2706
g4
sS'director_fees_log'
p2707
g4
sS'restricted_stock_squared'
p2708
g4
sg11
I35818
sS'total_payments_squared'
p2709
g4
sg13
I01
sg14
I-262500
sg15
F0.7737839300164234
sg16
S'christopher.calger@enron.com'
p2710
sg18
I375304
sS'restricted_stock_log'
p2711
g4
sS'restricted_stock_deferred_log'
p2712
g4
sS'salary_log'
p2713
g4
sS'exercised_stock_options_squared'
p2714
g4
sS'deferred_income_squared'
p2715
g4
sg24
g7
sg25
F0.8796498905908097
sg26
I2188
sg27
g7
sg28
I144
sg29
I486
sS'exercised_stock_options_log'
p2716
g4
sg31
g7
sS'bonus_squared'
p2717
g4
sS'total_stock_value_log'
p2718
g4
sS'long_term_incentive_squared'
p2719
g4
sS'salary_squared'
p2720
g4
sg36
I1250000
sS'expenses_squared'
p2721
g4
sg38
I126027
sg39
I199
sS'deferral_payments_squared'
p2722
g4
sS'deferral_payments_log'
p2723
g4
sS'other_log'
p2724
g4
sg43
I25
sS'restricted_stock_deferred_squared'
p2725
g4
sS'total_payments_log'
p2726
g4
sS'director_fees_squared'
p2727
g4
sg47
I126027
sS'long_term_incentive_log'
p2728
g4
sg49
I240189
sg50
I1639297
sg51
g7
sS'loan_advances_squared'
p2729
g4
sS'total_stock_value_squared'
p2730
g4
sS'other_squared'
p2731
g4
sS'loan_advances_log'
p2732
g4
sS'deferred_income_log'
p2733
g4
ssS'RICE KENNETH D'
p2734
(dp2735
S'expenses_log'
p2736
g4
sg5
I905
sg6
g7
sS'bonus_log'
p2737
g4
sS'director_fees_log'
p2738
g4
sS'restricted_stock_squared'
p2739
g4
sg11
I46950
sS'total_payments_squared'
p2740
g4
sg13
I01
sg14
I-3504386
sg15
F0.9720293592541163
sg16
S'ken.rice@enron.com'
p2741
sg18
I1617011
sS'restricted_stock_log'
p2742
g4
sS'restricted_stock_deferred_log'
p2743
g4
sS'salary_log'
p2744
g4
sS'exercised_stock_options_squared'
p2745
g4
sS'deferred_income_squared'
p2746
g4
sg24
g7
sg25
F0.9859154929577465
sg26
I864
sg27
g7
sg28
I18
sg29
I174839
sS'exercised_stock_options_log'
p2747
g4
sg31
g7
sS'bonus_squared'
p2748
g4
sS'total_stock_value_log'
p2749
g4
sS'long_term_incentive_squared'
p2750
g4
sS'salary_squared'
p2751
g4
sg36
I1750000
sS'expenses_squared'
p2752
g4
sg38
I22542539
sg39
I42
sS'deferral_payments_squared'
p2753
g4
sS'deferral_payments_log'
p2754
g4
sS'other_log'
p2755
g4
sg43
I4
sS'restricted_stock_deferred_squared'
p2756
g4
sS'total_payments_log'
p2757
g4
sS'director_fees_squared'
p2758
g4
sg47
I2748364
sS'long_term_incentive_log'
p2759
g4
sg49
I420636
sg50
I505050
sg51
I19794175
sS'loan_advances_squared'
p2760
g4
sS'total_stock_value_squared'
p2761
g4
sS'other_squared'
p2762
g4
sS'loan_advances_log'
p2763
g4
sS'deferred_income_log'
p2764
g4
ssS'KAMINSKI WINCENTY J'
p2765
(dp2766
S'expenses_log'
p2767
g4
sg5
I4607
sg6
g7
sS'bonus_log'
p2768
g4
sS'director_fees_log'
p2769
g4
sS'restricted_stock_squared'
p2770
g4
sg11
I83585
sS'total_payments_squared'
p2771
g4
sg13
I00
sg14
g7
sg15
F0.0017553781499476636
sg16
S'vince.kaminski@enron.com'
p2772
sg18
I323466
sS'restricted_stock_log'
p2773
g4
sS'restricted_stock_deferred_log'
p2774
g4
sS'salary_log'
p2775
g4
sS'exercised_stock_options_squared'
p2776
g4
sS'deferred_income_squared'
p2777
g4
sg24
g7
sg25
F0.04189723320158103
sg26
I583
sg27
g7
sg28
I14368
sg29
I4669
sS'exercised_stock_options_log'
p2778
g4
sg31
g7
sS'bonus_squared'
p2779
g4
sS'total_stock_value_log'
p2780
g4
sS'long_term_incentive_squared'
p2781
g4
sS'salary_squared'
p2782
g4
sg36
I400000
sS'expenses_squared'
p2783
g4
sg38
I976037
sg39
I41
sS'deferral_payments_squared'
p2784
g4
sS'deferral_payments_log'
p2785
g4
sS'other_log'
p2786
g4
sg43
I171
sS'restricted_stock_deferred_squared'
p2787
g4
sS'total_payments_log'
p2788
g4
sS'director_fees_squared'
p2789
g4
sg47
I126027
sS'long_term_incentive_log'
p2790
g4
sg49
I275101
sg50
I1086821
sg51
I850010
sS'loan_advances_squared'
p2791
g4
sS'total_stock_value_squared'
p2792
g4
sS'other_squared'
p2793
g4
sS'loan_advances_log'
p2794
g4
sS'deferred_income_log'
p2795
g4
ssS'LOCKHART EUGENE E'
p2796
(dp2797
S'expenses_log'
p2798
g4
sg5
g7
sg6
g7
sS'bonus_log'
p2799
g4
sS'director_fees_log'
p2800
g4
sS'restricted_stock_squared'
p2801
g4
sg11
g7
sS'total_payments_squared'
p2802
g4
sg13
I00
sg14
g7
sS'restricted_stock_log'
p2803
g4
sg16
g7
sg18
g7
sS'exercised_stock_options_squared'
p2804
g4
sS'restricted_stock_deferred_log'
p2805
g4
sS'salary_log'
p2806
g4
sS'deferred_income_squared'
p2807
g4
sg24
g7
sg25
g4
sg26
g7
sg27
g7
sg28
g7
sg29
g7
sS'exercised_stock_options_log'
p2808
g4
sg31
g7
sS'bonus_squared'
p2809
g4
sS'total_stock_value_log'
p2810
g4
sS'long_term_incentive_squared'
p2811
g4
sS'salary_squared'
p2812
g4
sg36
g7
sS'expenses_squared'
p2813
g4
sg38
g7
sg39
g7
sS'deferral_payments_squared'
p2814
g4
sS'deferral_payments_log'
p2815
g4
sS'other_log'
p2816
g4
sg43
g7
sS'restricted_stock_deferred_squared'
p2817
g4
sS'total_payments_log'
p2818
g4
sS'director_fees_squared'
p2819
g4
sg47
g7
sS'long_term_incentive_log'
p2820
g4
sg49
g7
sg50
g7
sg51
g7
sS'loan_advances_squared'
p2821
g4
sS'total_stock_value_squared'
p2822
g4
sS'other_squared'
p2823
g4
sS'loan_advances_log'
p2824
g4
sS'deferred_income_log'
p2825
g4
ssS'COX DAVID'
p2826
(dp2827
S'expenses_log'
p2828
g4
sg5
I102
sg6
g7
sS'bonus_log'
p2829
g4
sS'director_fees_log'
p2830
g4
sS'restricted_stock_squared'
p2831
g4
sg11
I27861
sS'total_payments_squared'
p2832
g4
sg13
I00
sg14
I-41250
sg15
F0.308641975308642
sg16
S'chip.cox@enron.com'
p2833
sg18
g7
sS'restricted_stock_log'
p2834
g4
sS'restricted_stock_deferred_log'
p2835
g4
sS'salary_log'
p2836
g4
sS'exercised_stock_options_squared'
p2837
g4
sS'deferred_income_squared'
p2838
g4
sg24
g7
sg25
F0.5555555555555556
sg26
I71
sg27
g7
sg28
I33
sg29
I494
sS'exercised_stock_options_log'
p2839
g4
sg31
g7
sS'bonus_squared'
p2840
g4
sS'total_stock_value_log'
p2841
g4
sS'long_term_incentive_squared'
p2842
g4
sS'salary_squared'
p2843
g4
sg36
I800000
sS'expenses_squared'
p2844
g4
sg38
I495633
sg39
I0
sS'deferral_payments_squared'
p2845
g4
sS'deferral_payments_log'
p2846
g4
sS'other_log'
p2847
g4
sg43
I4
sS'restricted_stock_deferred_squared'
p2848
g4
sS'total_payments_log'
p2849
g4
sS'director_fees_squared'
p2850
g4
sg47
I378082
sS'long_term_incentive_log'
p2851
g4
sg49
I314288
sg50
I1101393
sg51
I117551
sS'loan_advances_squared'
p2852
g4
sS'total_stock_value_squared'
p2853
g4
sS'other_squared'
p2854
g4
sS'loan_advances_log'
p2855
g4
sS'deferred_income_log'
p2856
g4
ssS'OVERDYKE JR JERE C'
p2857
(dp2858
S'expenses_log'
p2859
g4
sg5
g7
sg6
g7
sS'bonus_log'
p2860
g4
sS'director_fees_log'
p2861
g4
sS'restricted_stock_squared'
p2862
g4
sg11
I18834
sS'total_payments_squared'
p2863
g4
sg13
I00
sg14
g7
sS'restricted_stock_log'
p2864
g4
sg16
S'jere.overdyke@enron.com'
p2865
sg18
I135836
sS'exercised_stock_options_squared'
p2866
g4
sS'restricted_stock_deferred_log'
p2867
g4
sS'salary_log'
p2868
g4
sS'deferred_income_squared'
p2869
g4
sg24
g7
sg25
g4
sg26
g7
sg27
g7
sg28
g7
sg29
I176
sS'exercised_stock_options_log'
p2870
g4
sg31
g7
sS'bonus_squared'
p2871
g4
sS'total_stock_value_log'
p2872
g4
sS'long_term_incentive_squared'
p2873
g4
sS'salary_squared'
p2874
g4
sg36
g7
sS'expenses_squared'
p2875
g4
sg38
I7307594
sg39
g7
sS'deferral_payments_squared'
p2876
g4
sS'deferral_payments_log'
p2877
g4
sS'other_log'
p2878
g4
sg43
g7
sS'restricted_stock_deferred_squared'
p2879
g4
sS'total_payments_log'
p2880
g4
sS'director_fees_squared'
p2881
g4
sg47
I2041016
sS'long_term_incentive_log'
p2882
g4
sg49
I94941
sg50
I249787
sg51
I5266578
sS'loan_advances_squared'
p2883
g4
sS'total_stock_value_squared'
p2884
g4
sS'other_squared'
p2885
g4
sS'loan_advances_log'
p2886
g4
sS'deferred_income_log'
p2887
g4
ssS'PEREIRA PAULO V. FERRAZ'
p2888
(dp2889
S'expenses_log'
p2890
g4
sg5
g7
sg6
g7
sS'bonus_log'
p2891
g4
sS'director_fees_log'
p2892
g4
sS'restricted_stock_squared'
p2893
g4
sg11
I27942
sS'total_payments_squared'
p2894
g4
sg13
I00
sg14
I-101250
sS'restricted_stock_log'
p2895
g4
sg16
g7
sg18
g7
sS'exercised_stock_options_squared'
p2896
g4
sS'restricted_stock_deferred_log'
p2897
g4
sS'salary_log'
p2898
g4
sS'deferred_income_squared'
p2899
g4
sg24
g7
sg25
g4
sg26
g7
sg27
g7
sg28
g7
sg29
g7
sS'exercised_stock_options_log'
p2900
g4
sg31
I101250
sS'bonus_squared'
p2901
g4
sS'total_stock_value_log'
p2902
g4
sS'long_term_incentive_squared'
p2903
g4
sS'salary_squared'
p2904
g4
sg36
g7
sS'expenses_squared'
p2905
g4
sg38
g7
sg39
g7
sS'deferral_payments_squared'
p2906
g4
sS'deferral_payments_log'
p2907
g4
sS'other_log'
p2908
g4
sg43
g7
sS'restricted_stock_deferred_squared'
p2909
g4
sS'total_payments_log'
p2910
g4
sS'director_fees_squared'
p2911
g4
sg47
g7
sS'long_term_incentive_log'
p2912
g4
sg49
g7
sg50
I27942
sg51
g7
sS'loan_advances_squared'
p2913
g4
sS'total_stock_value_squared'
p2914
g4
sS'other_squared'
p2915
g4
sS'loan_advances_log'
p2916
g4
sS'deferred_income_log'
p2917
g4
ssS'STABLER FRANK'
p2918
(dp2919
S'expenses_log'
p2920
g4
sg5
g7
sg6
g7
sS'bonus_log'
p2921
g4
sS'director_fees_log'
p2922
g4
sS'restricted_stock_squared'
p2923
g4
sg11
I16514
sS'total_payments_squared'
p2924
g4
sg13
I00
sg14
g7
sS'restricted_stock_log'
p2925
g4
sg16
S'frank.stabler@enron.com'
p2926
sg18
g7
sS'exercised_stock_options_squared'
p2927
g4
sS'restricted_stock_deferred_log'
p2928
g4
sS'salary_log'
p2929
g4
sS'deferred_income_squared'
p2930
g4
sg24
g7
sg25
g4
sg26
g7
sg27
g7
sg28
g7
sg29
I356071
sS'exercised_stock_options_log'
p2931
g4
sg31
g7
sS'bonus_squared'
p2932
g4
sS'total_stock_value_log'
p2933
g4
sS'long_term_incentive_squared'
p2934
g4
sS'salary_squared'
p2935
g4
sg36
I500000
sS'expenses_squared'
p2936
g4
sg38
I511734
sg39
g7
sS'deferral_payments_squared'
p2937
g4
sS'deferral_payments_log'
p2938
g4
sS'other_log'
p2939
g4
sg43
g7
sS'restricted_stock_deferred_squared'
p2940
g4
sS'total_payments_log'
p2941
g4
sS'director_fees_squared'
p2942
g4
sg47
I511734
sS'long_term_incentive_log'
p2943
g4
sg49
I239502
sg50
I1112087
sg51
g7
sS'loan_advances_squared'
p2944
g4
sS'total_stock_value_squared'
p2945
g4
sS'other_squared'
p2946
g4
sS'loan_advances_log'
p2947
g4
sS'deferred_income_log'
p2948
g4
ssS'SKILLING JEFFREY K'
p2949
(dp2950
S'expenses_log'
p2951
g4
sg5
I3627
sg6
g7
sS'bonus_log'
p2952
g4
sS'director_fees_log'
p2953
g4
sS'restricted_stock_squared'
p2954
g4
sg11
I29336
sS'total_payments_squared'
p2955
g4
sg13
I01
sg14
g7
sg15
F0.33444621860937723
sg16
S'jeff.skilling@enron.com'
p2956
sg18
I1920000
sS'restricted_stock_log'
p2957
g4
sS'restricted_stock_deferred_log'
p2958
g4
sS'salary_log'
p2959
g4
sS'exercised_stock_options_squared'
p2960
g4
sS'deferred_income_squared'
p2961
g4
sg24
g7
sg25
F0.5783132530120482
sg26
I2042
sg27
g7
sg28
I108
sg29
I22122
sS'exercised_stock_options_log'
p2962
g4
sg31
g7
sS'bonus_squared'
p2963
g4
sS'total_stock_value_log'
p2964
g4
sS'long_term_incentive_squared'
p2965
g4
sS'salary_squared'
p2966
g4
sg36
I5600000
sS'expenses_squared'
p2967
g4
sg38
I26093672
sg39
I88
sS'deferral_payments_squared'
p2968
g4
sS'deferral_payments_log'
p2969
g4
sS'other_log'
p2970
g4
sg43
I30
sS'restricted_stock_deferred_squared'
p2971
g4
sS'total_payments_log'
p2972
g4
sS'director_fees_squared'
p2973
g4
sg47
I6843672
sS'long_term_incentive_log'
p2974
g4
sg49
I1111258
sg50
I8682716
sg51
I19250000
sS'loan_advances_squared'
p2975
g4
sS'total_stock_value_squared'
p2976
g4
sS'other_squared'
p2977
g4
sS'loan_advances_log'
p2978
g4
sS'deferred_income_log'
p2979
g4
ssS'BLAKE JR. NORMAN P'
p2980
(dp2981
S'expenses_log'
p2982
g4
sg5
g7
sg6
g7
sS'bonus_log'
p2983
g4
sS'director_fees_log'
p2984
g4
sS'restricted_stock_squared'
p2985
g4
sg11
I1279
sS'total_payments_squared'
p2986
g4
sg13
I00
sg14
I-113784
sS'restricted_stock_log'
p2987
g4
sg16
g7
sg18
g7
sS'exercised_stock_options_squared'
p2988
g4
sS'restricted_stock_deferred_log'
p2989
g4
sS'salary_log'
p2990
g4
sS'deferred_income_squared'
p2991
g4
sg24
g7
sg25
g4
sg26
g7
sg27
g7
sg28
g7
sg29
g7
sS'exercised_stock_options_log'
p2992
g4
sg31
I113784
sS'bonus_squared'
p2993
g4
sS'total_stock_value_log'
p2994
g4
sS'long_term_incentive_squared'
p2995
g4
sS'salary_squared'
p2996
g4
sg36
g7
sS'expenses_squared'
p2997
g4
sg38
g7
sg39
g7
sS'deferral_payments_squared'
p2998
g4
sS'deferral_payments_log'
p2999
g4
sS'other_log'
p3000
g4
sg43
g7
sS'restricted_stock_deferred_squared'
p3001
g4
sS'total_payments_log'
p3002
g4
sS'director_fees_squared'
p3003
g4
sg47
g7
sS'long_term_incentive_log'
p3004
g4
sg49
g7
sg50
I1279
sg51
g7
sS'loan_advances_squared'
p3005
g4
sS'total_stock_value_squared'
p3006
g4
sS'other_squared'
p3007
g4
sS'loan_advances_log'
p3008
g4
sS'deferred_income_log'
p3009
g4
ssS'SHERRICK JEFFREY B'
p3010
(dp3011
S'expenses_log'
p3012
g4
sg5
I613
sg6
g7
sS'bonus_log'
p3013
g4
sS'director_fees_log'
p3014
g4
sS'restricted_stock_squared'
p3015
g4
sg11
g7
sS'total_payments_squared'
p3016
g4
sg13
I00
sg14
g7
sg15
F1.0062794194239442
sg16
S'jeffrey.sherrick@enron.com'
p3017
sg18
g7
sS'restricted_stock_log'
p3018
g4
sS'restricted_stock_deferred_log'
p3019
g4
sS'salary_log'
p3020
g4
sS'exercised_stock_options_squared'
p3021
g4
sS'deferred_income_squared'
p3022
g4
sg24
g7
sg25
F1.0031347962382444
sg26
I583
sg27
g7
sg28
I25
sg29
g7
sS'exercised_stock_options_log'
p3023
g4
sg31
g7
sS'bonus_squared'
p3024
g4
sS'total_stock_value_log'
p3025
g4
sS'long_term_incentive_squared'
p3026
g4
sS'salary_squared'
p3027
g4
sg36
g7
sS'expenses_squared'
p3028
g4
sg38
I1832468
sg39
I39
sS'deferral_payments_squared'
p3029
g4
sS'deferral_payments_log'
p3030
g4
sS'other_log'
p3031
g4
sg43
I18
sS'restricted_stock_deferred_squared'
p3032
g4
sS'total_payments_log'
p3033
g4
sS'director_fees_squared'
p3034
g4
sg47
I405999
sS'long_term_incentive_log'
p3035
g4
sg49
g7
sg50
g7
sg51
I1426469
sS'loan_advances_squared'
p3036
g4
sS'total_stock_value_squared'
p3037
g4
sS'other_squared'
p3038
g4
sS'loan_advances_log'
p3039
g4
sS'deferred_income_log'
p3040
g4
ssS'PRENTICE JAMES'
p3041
(dp3042
S'expenses_log'
p3043
g4
sg5
g7
sg6
I564348
sS'bonus_log'
p3044
g4
sS'director_fees_log'
p3045
g4
sS'restricted_stock_squared'
p3046
g4
sg11
g7
sS'total_payments_squared'
p3047
g4
sg13
I00
sg14
g7
sS'restricted_stock_log'
p3048
g4
sg16
S'james.prentice@enron.com'
p3049
sg18
g7
sS'exercised_stock_options_squared'
p3050
g4
sS'restricted_stock_deferred_log'
p3051
g4
sS'salary_log'
p3052
g4
sS'deferred_income_squared'
p3053
g4
sg24
g7
sg25
g4
sg26
g7
sg27
g7
sg28
g7
sg29
g7
sS'exercised_stock_options_log'
p3054
g4
sg31
g7
sS'bonus_squared'
p3055
g4
sS'total_stock_value_log'
p3056
g4
sS'long_term_incentive_squared'
p3057
g4
sS'salary_squared'
p3058
g4
sg36
g7
sS'expenses_squared'
p3059
g4
sg38
I1095040
sg39
g7
sS'deferral_payments_squared'
p3060
g4
sS'deferral_payments_log'
p3061
g4
sS'other_log'
p3062
g4
sg43
g7
sS'restricted_stock_deferred_squared'
p3063
g4
sS'total_payments_log'
p3064
g4
sS'director_fees_squared'
p3065
g4
sg47
I208809
sS'long_term_incentive_log'
p3066
g4
sg49
g7
sg50
I564348
sg51
I886231
sS'loan_advances_squared'
p3067
g4
sS'total_stock_value_squared'
p3068
g4
sS'other_squared'
p3069
g4
sS'loan_advances_log'
p3070
g4
sS'deferred_income_log'
p3071
g4
ssS'GRAY RODNEY'
p3072
(dp3073
S'expenses_log'
p3074
g4
sg5
g7
sg6
I93585
sS'bonus_log'
p3075
g4
sS'director_fees_log'
p3076
g4
sS'restricted_stock_squared'
p3077
g4
sg11
g7
sS'total_payments_squared'
p3078
g4
sg13
I00
sg14
g7
sS'restricted_stock_log'
p3079
g4
sg16
g7
sg18
I365625
sS'exercised_stock_options_squared'
p3080
g4
sS'restricted_stock_deferred_log'
p3081
g4
sS'salary_log'
p3082
g4
sS'deferred_income_squared'
p3083
g4
sg24
g7
sg25
g4
sg26
g7
sg27
g7
sg28
g7
sg29
I680833
sS'exercised_stock_options_log'
p3084
g4
sg31
g7
sS'bonus_squared'
p3085
g4
sS'total_stock_value_log'
p3086
g4
sS'long_term_incentive_squared'
p3087
g4
sS'salary_squared'
p3088
g4
sg36
g7
sS'expenses_squared'
p3089
g4
sg38
g7
sg39
g7
sS'deferral_payments_squared'
p3090
g4
sS'deferral_payments_log'
p3091
g4
sS'other_log'
p3092
g4
sg43
g7
sS'restricted_stock_deferred_squared'
p3093
g4
sS'total_payments_log'
p3094
g4
sS'director_fees_squared'
p3095
g4
sg47
g7
sS'long_term_incentive_log'
p3096
g4
sg49
I6615
sg50
I1146658
sg51
g7
sS'loan_advances_squared'
p3097
g4
sS'total_stock_value_squared'
p3098
g4
sS'other_squared'
p3099
g4
sS'loan_advances_log'
p3100
g4
sS'deferred_income_log'
p3101
g4
ssS'PICKERING MARK R'
p3102
(dp3103
S'expenses_log'
p3104
g4
sg5
I898
sg6
g7
sS'bonus_log'
p3105
g4
sS'director_fees_log'
p3106
g4
sS'restricted_stock_squared'
p3107
g4
sg11
I31653
sS'total_payments_squared'
p3108
g4
sg13
I00
sg14
g7
sg15
F0.5801229563209751
sg16
S'mark.pickering@enron.com'
p3109
sg18
g7
sS'restricted_stock_log'
p3110
g4
sS'restricted_stock_deferred_log'
p3111
g4
sS'salary_log'
p3112
g4
sS'exercised_stock_options_squared'
p3113
g4
sS'deferred_income_squared'
p3114
g4
sg24
g7
sg25
F0.7616580310880829
sg26
I728
sg27
I400000
sg28
I67
sg29
g7
sS'exercised_stock_options_log'
p3115
g4
sg31
g7
sS'bonus_squared'
p3116
g4
sS'total_stock_value_log'
p3117
g4
sS'long_term_incentive_squared'
p3118
g4
sS'salary_squared'
p3119
g4
sg36
I300000
sS'expenses_squared'
p3120
g4
sg38
I28798
sg39
I7
sS'deferral_payments_squared'
p3121
g4
sS'deferral_payments_log'
p3122
g4
sS'other_log'
p3123
g4
sg43
I0
sS'restricted_stock_deferred_squared'
p3124
g4
sS'total_payments_log'
p3125
g4
sS'director_fees_squared'
p3126
g4
sg47
g7
sS'long_term_incentive_log'
p3127
g4
sg49
I655037
sg50
I1386690
sg51
I28798
sS'loan_advances_squared'
p3128
g4
sS'total_stock_value_squared'
p3129
g4
sS'other_squared'
p3130
g4
sS'loan_advances_log'
p3131
g4
sS'deferred_income_log'
p3132
g4
ssS'NOLES JAMES L'
p3133
(dp3134
S'expenses_log'
p3135
g4
sg5
g7
sg6
I774401
sS'bonus_log'
p3136
g4
sS'director_fees_log'
p3137
g4
sS'restricted_stock_squared'
p3138
g4
sg11
g7
sS'total_payments_squared'
p3139
g4
sg13
I00
sg14
g7
sS'restricted_stock_log'
p3140
g4
sg16
g7
sg18
g7
sS'exercised_stock_options_squared'
p3141
g4
sS'restricted_stock_deferred_log'
p3142
g4
sS'salary_log'
p3143
g4
sS'deferred_income_squared'
p3144
g4
sg24
I-94556
sg25
g4
sg26
g7
sg27
g7
sg28
g7
sg29
g7
sS'exercised_stock_options_log'
p3145
g4
sg31
g7
sS'bonus_squared'
p3146
g4
sS'total_stock_value_log'
p3147
g4
sS'long_term_incentive_squared'
p3148
g4
sS'salary_squared'
p3149
g4
sg36
g7
sS'expenses_squared'
p3150
g4
sg38
I368705
sg39
g7
sS'deferral_payments_squared'
p3151
g4
sS'deferral_payments_log'
p3152
g4
sS'other_log'
p3153
g4
sg43
g7
sS'restricted_stock_deferred_squared'
p3154
g4
sS'total_payments_log'
p3155
g4
sS'director_fees_squared'
p3156
g4
sg47
I463261
sS'long_term_incentive_log'
p3157
g4
sg49
g7
sg50
I774401
sg51
g7
sS'loan_advances_squared'
p3158
g4
sS'total_stock_value_squared'
p3159
g4
sS'other_squared'
p3160
g4
sS'loan_advances_log'
p3161
g4
sS'deferred_income_log'
p3162
g4
ssS'KEAN STEVEN J'
p3163
(dp3164
S'expenses_log'
p3165
g4
sg5
I12754
sg6
g7
sS'bonus_log'
p3166
g4
sS'director_fees_log'
p3167
g4
sS'restricted_stock_squared'
p3168
g4
sg11
I41953
sS'total_payments_squared'
p3169
g4
sg13
I00
sg14
g7
sg15
F0.0455816919891008
sg16
S'steven.kean@enron.com'
p3170
sg18
I300000
sS'restricted_stock_log'
p3171
g4
sS'restricted_stock_deferred_log'
p3172
g4
sS'salary_log'
p3173
g4
sS'exercised_stock_options_squared'
p3174
g4
sS'deferred_income_squared'
p3175
g4
sg24
g7
sg25
F0.21349869317890638
sg26
I3639
sg27
g7
sg28
I6759
sg29
I1231
sS'exercised_stock_options_log'
p3176
g4
sg31
g7
sS'bonus_squared'
p3177
g4
sS'total_stock_value_log'
p3178
g4
sS'long_term_incentive_squared'
p3179
g4
sS'salary_squared'
p3180
g4
sg36
I1000000
sS'expenses_squared'
p3181
g4
sg38
I6153642
sg39
I140
sS'deferral_payments_squared'
p3182
g4
sS'deferral_payments_log'
p3183
g4
sS'other_log'
p3184
g4
sg43
I387
sS'restricted_stock_deferred_squared'
p3185
g4
sS'total_payments_log'
p3186
g4
sS'director_fees_squared'
p3187
g4
sg47
I4131594
sS'long_term_incentive_log'
p3188
g4
sg49
I404338
sg50
I1747522
sg51
I2022048
sS'loan_advances_squared'
p3189
g4
sS'total_stock_value_squared'
p3190
g4
sS'other_squared'
p3191
g4
sS'loan_advances_log'
p3192
g4
sS'deferred_income_log'
p3193
g4
ssS'FOWLER PEGGY'
p3194
(dp3195
S'expenses_log'
p3196
g4
sg5
I517
sg6
g7
sS'bonus_log'
p3197
g4
sS'director_fees_log'
p3198
g4
sS'restricted_stock_squared'
p3199
g4
sg11
g7
sS'total_payments_squared'
p3200
g4
sg13
I00
sg14
g7
sg15
F0.0003270014943968294
sg16
S'kulvinder.fowler@enron.com'
p3201
sg18
g7
sS'restricted_stock_log'
p3202
g4
sS'restricted_stock_deferred_log'
p3203
g4
sS'salary_log'
p3204
g4
sS'exercised_stock_options_squared'
p3205
g4
sS'deferred_income_squared'
p3206
g4
sg24
g7
sg25
F0.018083182640144666
sg26
I10
sg27
g7
sg28
I36
sg29
g7
sS'exercised_stock_options_log'
p3207
g4
sg31
g7
sS'bonus_squared'
p3208
g4
sS'total_stock_value_log'
p3209
g4
sS'long_term_incentive_squared'
p3210
g4
sS'salary_squared'
p3211
g4
sg36
g7
sS'expenses_squared'
p3212
g4
sg38
I1884748
sg39
I0
sS'deferral_payments_squared'
p3213
g4
sS'deferral_payments_log'
p3214
g4
sS'other_log'
p3215
g4
sg43
I0
sS'restricted_stock_deferred_squared'
p3216
g4
sS'total_payments_log'
p3217
g4
sS'director_fees_squared'
p3218
g4
sg47
I560170
sS'long_term_incentive_log'
p3219
g4
sg49
g7
sg50
g7
sg51
I1324578
sS'loan_advances_squared'
p3220
g4
sS'total_stock_value_squared'
p3221
g4
sS'other_squared'
p3222
g4
sS'loan_advances_log'
p3223
g4
sS'deferred_income_log'
p3224
g4
ssS'WASAFF GEORGE'
p3225
(dp3226
S'expenses_log'
p3227
g4
sg5
I400
sg6
I831299
sS'bonus_log'
p3228
g4
sS'director_fees_log'
p3229
g4
sS'restricted_stock_squared'
p3230
g4
sg11
g7
sS'total_payments_squared'
p3231
g4
sg13
I00
sg14
I-583325
sg15
F0.7244780962682531
sg16
S'george.wasaff@enron.com'
p3232
sg18
I200000
sS'restricted_stock_log'
p3233
g4
sS'restricted_stock_deferred_log'
p3234
g4
sS'salary_log'
p3235
g4
sS'exercised_stock_options_squared'
p3236
g4
sS'deferred_income_squared'
p3237
g4
sg24
g7
sg25
F0.8511627906976744
sg26
I337
sg27
g7
sg28
I30
sg29
I1425
sS'exercised_stock_options_log'
p3238
g4
sg31
g7
sS'bonus_squared'
p3239
g4
sS'total_stock_value_log'
p3240
g4
sS'long_term_incentive_squared'
p3241
g4
sS'salary_squared'
p3242
g4
sg36
I325000
sS'expenses_squared'
p3243
g4
sg38
I2056427
sg39
I22
sS'deferral_payments_squared'
p3244
g4
sS'deferral_payments_log'
p3245
g4
sS'other_log'
p3246
g4
sg43
I7
sS'restricted_stock_deferred_squared'
p3247
g4
sS'total_payments_log'
p3248
g4
sS'director_fees_squared'
p3249
g4
sg47
I388167
sS'long_term_incentive_log'
p3250
g4
sg49
I259996
sg50
I1034395
sg51
I1668260
sS'loan_advances_squared'
p3251
g4
sS'total_stock_value_squared'
p3252
g4
sS'other_squared'
p3253
g4
sS'loan_advances_log'
p3254
g4
sS'deferred_income_log'
p3255
g4
ssS'WHITE JR THOMAS E'
p3256
(dp3257
S'expenses_log'
p3258
g4
sg5
g7
sg6
g7
sS'bonus_log'
p3259
g4
sS'director_fees_log'
p3260
g4
sS'restricted_stock_squared'
p3261
g4
sg11
I81353
sS'total_payments_squared'
p3262
g4
sg13
I00
sg14
g7
sS'restricted_stock_log'
p3263
g4
sg16
S'thomas.white@enron.com'
p3264
sg18
g7
sS'exercised_stock_options_squared'
p3265
g4
sS'restricted_stock_deferred_log'
p3266
g4
sS'salary_log'
p3267
g4
sS'deferred_income_squared'
p3268
g4
sg24
g7
sg25
g4
sg26
g7
sg27
g7
sg28
g7
sg29
I1085463
sS'exercised_stock_options_log'
p3269
g4
sg31
g7
sS'bonus_squared'
p3270
g4
sS'total_stock_value_log'
p3271
g4
sS'long_term_incentive_squared'
p3272
g4
sS'salary_squared'
p3273
g4
sg36
I450000
sS'expenses_squared'
p3274
g4
sg38
I15144123
sg39
g7
sS'deferral_payments_squared'
p3275
g4
sS'deferral_payments_log'
p3276
g4
sS'other_log'
p3277
g4
sg43
g7
sS'restricted_stock_deferred_squared'
p3278
g4
sS'total_payments_log'
p3279
g4
sS'director_fees_squared'
p3280
g4
sg47
I13847074
sS'long_term_incentive_log'
p3281
g4
sg49
I317543
sg50
I1934359
sg51
I1297049
sS'loan_advances_squared'
p3282
g4
sS'total_stock_value_squared'
p3283
g4
sS'other_squared'
p3284
g4
sS'loan_advances_log'
p3285
g4
sS'deferred_income_log'
p3286
g4
ssS'CHRISTODOULOU DIOMEDES'
p3287
(dp3288
S'expenses_log'
p3289
g4
sg5
g7
sg6
g7
sS'bonus_log'
p3290
g4
sS'director_fees_log'
p3291
g4
sS'restricted_stock_squared'
p3292
g4
sg11
g7
sS'total_payments_squared'
p3293
g4
sg13
I00
sg14
g7
sS'restricted_stock_log'
p3294
g4
sg16
S'diomedes.christodoulou@enron.com'
p3295
sg18
g7
sS'exercised_stock_options_squared'
p3296
g4
sS'restricted_stock_deferred_log'
p3297
g4
sS'salary_log'
p3298
g4
sS'deferred_income_squared'
p3299
g4
sg24
g7
sg25
g4
sg26
g7
sg27
g7
sg28
g7
sg29
g7
sS'exercised_stock_options_log'
p3300
g4
sg31
g7
sS'bonus_squared'
p3301
g4
sS'total_stock_value_log'
p3302
g4
sS'long_term_incentive_squared'
p3303
g4
sS'salary_squared'
p3304
g4
sg36
g7
sS'expenses_squared'
p3305
g4
sg38
I6077885
sg39
g7
sS'deferral_payments_squared'
p3306
g4
sS'deferral_payments_log'
p3307
g4
sS'other_log'
p3308
g4
sg43
g7
sS'restricted_stock_deferred_squared'
p3309
g4
sS'total_payments_log'
p3310
g4
sS'director_fees_squared'
p3311
g4
sg47
I950730
sS'long_term_incentive_log'
p3312
g4
sg49
g7
sg50
g7
sg51
I5127155
sS'loan_advances_squared'
p3313
g4
sS'total_stock_value_squared'
p3314
g4
sS'other_squared'
p3315
g4
sS'loan_advances_log'
p3316
g4
sS'deferred_income_log'
p3317
g4
ssS'ALLEN PHILLIP K'
p3318
(dp3319
S'expenses_log'
p3320
g4
sg5
I2902
sg6
I2869717
sS'bonus_log'
p3321
g4
sS'director_fees_log'
p3322
g4
sS'restricted_stock_squared'
p3323
g4
sg11
I13868
sS'total_payments_squared'
p3324
g4
sg13
I00
sg14
I-3081055
sg15
F0.08881499190378042
sg16
S'phillip.allen@enron.com'
p3325
sg18
I304805
sS'restricted_stock_log'
p3326
g4
sS'restricted_stock_deferred_log'
p3327
g4
sS'salary_log'
p3328
g4
sS'exercised_stock_options_squared'
p3329
g4
sS'deferred_income_squared'
p3330
g4
sg24
I-126027
sg25
F0.2980184422209143
sg26
I1407
sg27
g7
sg28
I2195
sg29
I152
sS'exercised_stock_options_log'
p3331
g4
sg31
g7
sS'bonus_squared'
p3332
g4
sS'total_stock_value_log'
p3333
g4
sS'long_term_incentive_squared'
p3334
g4
sS'salary_squared'
p3335
g4
sg36
I4175000
sS'expenses_squared'
p3336
g4
sg38
I1729541
sg39
I47
sS'deferral_payments_squared'
p3337
g4
sS'deferral_payments_log'
p3338
g4
sS'other_log'
p3339
g4
sg43
I65
sS'restricted_stock_deferred_squared'
p3340
g4
sS'total_payments_log'
p3341
g4
sS'director_fees_squared'
p3342
g4
sg47
I126027
sS'long_term_incentive_log'
p3343
g4
sg49
I201955
sg50
I4484442
sg51
I1729541
sS'loan_advances_squared'
p3344
g4
sS'total_stock_value_squared'
p3345
g4
sS'other_squared'
p3346
g4
sS'loan_advances_log'
p3347
g4
sS'deferred_income_log'
p3348
g4
ssS'SHARP VICTORIA T'
p3349
(dp3350
S'expenses_log'
p3351
g4
sg5
I3136
sg6
I187469
sS'bonus_log'
p3352
g4
sS'director_fees_log'
p3353
g4
sS'restricted_stock_squared'
p3354
g4
sg11
I116337
sS'total_payments_squared'
p3355
g4
sg13
I00
sg14
g7
sg15
F0.5870594426444128
sg16
S'vicki.sharp@enron.com'
p3356
sg18
I422158
sS'restricted_stock_log'
p3357
g4
sS'restricted_stock_deferred_log'
p3358
g4
sS'salary_log'
p3359
g4
sS'exercised_stock_options_squared'
p3360
g4
sS'deferred_income_squared'
p3361
g4
sg24
g7
sg25
F0.76619804400978
sg26
I2477
sg27
g7
sg28
I136
sg29
I2401
sS'exercised_stock_options_log'
p3362
g4
sg31
g7
sS'bonus_squared'
p3363
g4
sS'total_stock_value_log'
p3364
g4
sS'long_term_incentive_squared'
p3365
g4
sS'salary_squared'
p3366
g4
sg36
I600000
sS'expenses_squared'
p3367
g4
sg38
I494136
sg39
I24
sS'deferral_payments_squared'
p3368
g4
sS'deferral_payments_log'
p3369
g4
sS'other_log'
p3370
g4
sg43
I6
sS'restricted_stock_deferred_squared'
p3371
g4
sS'total_payments_log'
p3372
g4
sS'director_fees_squared'
p3373
g4
sg47
I213063
sS'long_term_incentive_log'
p3374
g4
sg49
I248146
sg50
I1576511
sg51
I281073
sS'loan_advances_squared'
p3375
g4
sS'total_stock_value_squared'
p3376
g4
sS'other_squared'
p3377
g4
sS'loan_advances_log'
p3378
g4
sS'deferred_income_log'
p3379
g4
ssS'JAEDICKE ROBERT'
p3380
(dp3381
S'expenses_log'
p3382
g4
sg5
g7
sg6
g7
sS'bonus_log'
p3383
g4
sS'director_fees_log'
p3384
g4
sS'restricted_stock_squared'
p3385
g4
sg11
g7
sS'total_payments_squared'
p3386
g4
sg13
I00
sg14
I-25000
sS'restricted_stock_log'
p3387
g4
sg16
g7
sg18
g7
sS'exercised_stock_options_squared'
p3388
g4
sS'restricted_stock_deferred_log'
p3389
g4
sS'salary_log'
p3390
g4
sS'deferred_income_squared'
p3391
g4
sg24
I-44093
sg25
g4
sg26
g7
sg27
g7
sg28
g7
sg29
g7
sS'exercised_stock_options_log'
p3392
g4
sg31
I108750
sS'bonus_squared'
p3393
g4
sS'total_stock_value_log'
p3394
g4
sS'long_term_incentive_squared'
p3395
g4
sS'salary_squared'
p3396
g4
sg36
g7
sS'expenses_squared'
p3397
g4
sg38
I431750
sg39
g7
sS'deferral_payments_squared'
p3398
g4
sS'deferral_payments_log'
p3399
g4
sS'other_log'
p3400
g4
sg43
g7
sS'restricted_stock_deferred_squared'
p3401
g4
sS'total_payments_log'
p3402
g4
sS'director_fees_squared'
p3403
g4
sg47
I44093
sS'long_term_incentive_log'
p3404
g4
sg49
g7
sg50
I83750
sg51
I431750
sS'loan_advances_squared'
p3405
g4
sS'total_stock_value_squared'
p3406
g4
sS'other_squared'
p3407
g4
sS'loan_advances_log'
p3408
g4
sS'deferred_income_log'
p3409
g4
ssS'WINOKUR JR. HERBERT S'
p3410
(dp3411
S'expenses_log'
p3412
g4
sg5
g7
sg6
g7
sS'bonus_log'
p3413
g4
sS'director_fees_log'
p3414
g4
sS'restricted_stock_squared'
p3415
g4
sg11
I1413
sS'total_payments_squared'
p3416
g4
sg13
I00
sg14
I-25000
sS'restricted_stock_log'
p3417
g4
sg16
g7
sg18
g7
sS'exercised_stock_options_squared'
p3418
g4
sS'restricted_stock_deferred_log'
p3419
g4
sS'salary_log'
p3420
g4
sS'deferred_income_squared'
p3421
g4
sg24
g7
sg25
g4
sg26
g7
sg27
g7
sg28
g7
sg29
g7
sS'exercised_stock_options_log'
p3422
g4
sg31
I108579
sS'bonus_squared'
p3423
g4
sS'total_stock_value_log'
p3424
g4
sS'long_term_incentive_squared'
p3425
g4
sS'salary_squared'
p3426
g4
sg36
g7
sS'expenses_squared'
p3427
g4
sg38
g7
sg39
g7
sS'deferral_payments_squared'
p3428
g4
sS'deferral_payments_log'
p3429
g4
sS'other_log'
p3430
g4
sg43
g7
sS'restricted_stock_deferred_squared'
p3431
g4
sS'total_payments_log'
p3432
g4
sS'director_fees_squared'
p3433
g4
sg47
g7
sS'long_term_incentive_log'
p3434
g4
sg49
g7
sg50
I84992
sg51
g7
sS'loan_advances_squared'
p3435
g4
sS'total_stock_value_squared'
p3436
g4
sS'other_squared'
p3437
g4
sS'loan_advances_log'
p3438
g4
sS'deferred_income_log'
p3439
g4
ssS'BROWN MICHAEL'
p3440
(dp3441
S'expenses_log'
p3442
g4
sg5
I1486
sg6
g7
sS'bonus_log'
p3443
g4
sS'director_fees_log'
p3444
g4
sS'restricted_stock_squared'
p3445
g4
sg11
I49288
sS'total_payments_squared'
p3446
g4
sg13
I00
sg14
g7
sg15
F0.2575878243140605
sg16
S'michael.brown@enron.com'
p3447
sg18
g7
sS'restricted_stock_log'
p3448
g4
sS'restricted_stock_deferred_log'
p3449
g4
sS'salary_log'
p3450
g4
sS'exercised_stock_options_squared'
p3451
g4
sS'deferred_income_squared'
p3452
g4
sg24
g7
sg25
F0.5075311067452521
sg26
I761
sg27
g7
sg28
I41
sg29
g7
sS'exercised_stock_options_log'
p3453
g4
sg31
g7
sS'bonus_squared'
p3454
g4
sS'total_stock_value_log'
p3455
g4
sS'long_term_incentive_squared'
p3456
g4
sS'salary_squared'
p3457
g4
sg36
g7
sS'expenses_squared'
p3458
g4
sg38
g7
sg39
I13
sS'deferral_payments_squared'
p3459
g4
sS'deferral_payments_log'
p3460
g4
sS'other_log'
p3461
g4
sg43
I1
sS'restricted_stock_deferred_squared'
p3462
g4
sS'total_payments_log'
p3463
g4
sS'director_fees_squared'
p3464
g4
sg47
g7
sS'long_term_incentive_log'
p3465
g4
sg49
g7
sg50
I49288
sg51
g7
sS'loan_advances_squared'
p3466
g4
sS'total_stock_value_squared'
p3467
g4
sS'other_squared'
p3468
g4
sS'loan_advances_log'
p3469
g4
sS'deferred_income_log'
p3470
g4
ssS'BADUM JAMES P'
p3471
(dp3472
S'expenses_log'
p3473
g4
sg5
g7
sg6
I178980
sS'bonus_log'
p3474
g4
sS'director_fees_log'
p3475
g4
sS'restricted_stock_squared'
p3476
g4
sg11
I3486
sS'total_payments_squared'
p3477
g4
sg13
I00
sg14
g7
sS'restricted_stock_log'
p3478
g4
sg16
g7
sg18
g7
sS'exercised_stock_options_squared'
p3479
g4
sS'restricted_stock_deferred_log'
p3480
g4
sS'salary_log'
p3481
g4
sS'deferred_income_squared'
p3482
g4
sg24
g7
sg25
g4
sg26
g7
sg27
g7
sg28
g7
sg29
g7
sS'exercised_stock_options_log'
p3483
g4
sg31
g7
sS'bonus_squared'
p3484
g4
sS'total_stock_value_log'
p3485
g4
sS'long_term_incentive_squared'
p3486
g4
sS'salary_squared'
p3487
g4
sg36
g7
sS'expenses_squared'
p3488
g4
sg38
I257817
sg39
g7
sS'deferral_payments_squared'
p3489
g4
sS'deferral_payments_log'
p3490
g4
sS'other_log'
p3491
g4
sg43
g7
sS'restricted_stock_deferred_squared'
p3492
g4
sS'total_payments_log'
p3493
g4
sS'director_fees_squared'
p3494
g4
sg47
g7
sS'long_term_incentive_log'
p3495
g4
sg49
g7
sg50
I182466
sg51
I257817
sS'loan_advances_squared'
p3496
g4
sS'total_stock_value_squared'
p3497
g4
sS'other_squared'
p3498
g4
sS'loan_advances_log'
p3499
g4
sS'deferred_income_log'
p3500
g4
ssS'HUGHES JAMES A'
p3501
(dp3502
S'expenses_log'
p3503
g4
sg5
I719
sg6
g7
sS'bonus_log'
p3504
g4
sS'director_fees_log'
p3505
g4
sS'restricted_stock_squared'
p3506
g4
sg11
g7
sS'total_payments_squared'
p3507
g4
sg13
I00
sg14
g7
sg15
F0.6977684657562755
sg16
S'james.hughes@enron.com'
p3508
sg18
g7
sS'restricted_stock_log'
p3509
g4
sS'restricted_stock_deferred_log'
p3510
g4
sS'salary_log'
p3511
g4
sS'exercised_stock_options_squared'
p3512
g4
sS'deferred_income_squared'
p3513
g4
sg24
g7
sg25
F0.8353253652058433
sg26
I589
sg27
g7
sg28
I34
sg29
g7
sS'exercised_stock_options_log'
p3514
g4
sg31
g7
sS'bonus_squared'
p3515
g4
sS'total_stock_value_log'
p3516
g4
sS'long_term_incentive_squared'
p3517
g4
sS'salary_squared'
p3518
g4
sg36
g7
sS'expenses_squared'
p3519
g4
sg38
I1118394
sg39
I35
sS'deferral_payments_squared'
p3520
g4
sS'deferral_payments_log'
p3521
g4
sS'other_log'
p3522
g4
sg43
I5
sS'restricted_stock_deferred_squared'
p3523
g4
sS'total_payments_log'
p3524
g4
sS'director_fees_squared'
p3525
g4
sg47
I363428
sS'long_term_incentive_log'
p3526
g4
sg49
g7
sg50
g7
sg51
I754966
sS'loan_advances_squared'
p3527
g4
sS'total_stock_value_squared'
p3528
g4
sS'other_squared'
p3529
g4
sS'loan_advances_log'
p3530
g4
sS'deferred_income_log'
p3531
g4
ssS'REYNOLDS LAWRENCE'
p3532
(dp3533
S'expenses_log'
p3534
g4
sg5
g7
sg6
I51365
sS'bonus_log'
p3535
g4
sS'director_fees_log'
p3536
g4
sS'restricted_stock_squared'
p3537
g4
sg11
I8409
sS'total_payments_squared'
p3538
g4
sg13
I00
sg14
I-200000
sS'restricted_stock_log'
p3539
g4
sg16
g7
sg18
I156250
sS'exercised_stock_options_squared'
p3540
g4
sS'restricted_stock_deferred_log'
p3541
g4
sS'salary_log'
p3542
g4
sS'deferred_income_squared'
p3543
g4
sg24
I-140264
sg25
g4
sg26
g7
sg27
g7
sg28
g7
sg29
I202052
sS'exercised_stock_options_log'
p3544
g4
sg31
g7
sS'bonus_squared'
p3545
g4
sS'total_stock_value_log'
p3546
g4
sS'long_term_incentive_squared'
p3547
g4
sS'salary_squared'
p3548
g4
sg36
I100000
sS'expenses_squared'
p3549
g4
sg38
I4221891
sg39
g7
sS'deferral_payments_squared'
p3550
g4
sS'deferral_payments_log'
p3551
g4
sS'other_log'
p3552
g4
sg43
g7
sS'restricted_stock_deferred_squared'
p3553
g4
sS'total_payments_log'
p3554
g4
sS'director_fees_squared'
p3555
g4
sg47
I201483
sS'long_term_incentive_log'
p3556
g4
sg49
I76399
sg50
I394475
sg51
I4160672
sS'loan_advances_squared'
p3557
g4
sS'total_stock_value_squared'
p3558
g4
sS'other_squared'
p3559
g4
sS'loan_advances_log'
p3560
g4
sS'deferred_income_log'
p3561
g4
ssS'DIMICHELE RICHARD G'
p3562
(dp3563
S'expenses_log'
p3564
g4
sg5
g7
sg6
g7
sS'bonus_log'
p3565
g4
sS'director_fees_log'
p3566
g4
sS'restricted_stock_squared'
p3567
g4
sg11
I35812
sS'total_payments_squared'
p3568
g4
sg13
I00
sg14
g7
sS'restricted_stock_log'
p3569
g4
sg16
S'richard.dimichele@enron.com'
p3570
sg18
I694862
sS'exercised_stock_options_squared'
p3571
g4
sS'restricted_stock_deferred_log'
p3572
g4
sS'salary_log'
p3573
g4
sS'deferred_income_squared'
p3574
g4
sg24
g7
sg25
g4
sg26
g7
sg27
g7
sg28
g7
sg29
I374689
sS'exercised_stock_options_log'
p3575
g4
sg31
g7
sS'bonus_squared'
p3576
g4
sS'total_stock_value_log'
p3577
g4
sS'long_term_incentive_squared'
p3578
g4
sS'salary_squared'
p3579
g4
sg36
I1000000
sS'expenses_squared'
p3580
g4
sg38
I8317782
sg39
g7
sS'deferral_payments_squared'
p3581
g4
sS'deferral_payments_log'
p3582
g4
sS'other_log'
p3583
g4
sg43
g7
sS'restricted_stock_deferred_squared'
p3584
g4
sS'total_payments_log'
p3585
g4
sS'director_fees_squared'
p3586
g4
sg47
I126027
sS'long_term_incentive_log'
p3587
g4
sg49
I262788
sg50
I2368151
sg51
I8191755
sS'loan_advances_squared'
p3588
g4
sS'total_stock_value_squared'
p3589
g4
sS'other_squared'
p3590
g4
sS'loan_advances_log'
p3591
g4
sS'deferred_income_log'
p3592
g4
ssS'BHATNAGAR SANJAY'
p3593
(dp3594
S'expenses_log'
p3595
g4
sg5
I523
sg6
g7
sS'bonus_log'
p3596
g4
sS'director_fees_log'
p3597
g4
sS'restricted_stock_squared'
p3598
g4
sg11
g7
sS'total_payments_squared'
p3599
g4
sg13
I00
sg14
g7
sg15
F0.7065742491073304
sg16
S'sanjay.bhatnagar@enron.com'
p3600
sg18
g7
sS'restricted_stock_log'
p3601
g4
sS'restricted_stock_deferred_log'
p3602
g4
sS'salary_log'
p3603
g4
sS'exercised_stock_options_squared'
p3604
g4
sS'deferred_income_squared'
p3605
g4
sg24
I15456290
sg25
F0.8405797101449275
sg26
I463
sg27
g7
sg28
I29
sg29
I137864
sS'exercised_stock_options_log'
p3606
g4
sg31
I137864
sS'bonus_squared'
p3607
g4
sS'total_stock_value_log'
p3608
g4
sS'long_term_incentive_squared'
p3609
g4
sS'salary_squared'
p3610
g4
sg36
g7
sS'expenses_squared'
p3611
g4
sS'total_stock_value'
p3612
S'NaN'
p3613
sg39
I0
sS'deferral_payments_squared'
p3614
g4
sS'deferral_payments_log'
p3615
g4
sS'other_log'
p3616
g4
sg43
I1
sS'restricted_stock_deferred_squared'
p3617
g4
sS'total_payments_log'
p3618
g4
sS'director_fees_squared'
p3619
g4
sg47
I-2604490
sS'long_term_incentive_log'
p3620
g4
sg49
g7
sg50
I15456290
sg51
I2604490
sS'loan_advances_squared'
p3621
g4
sS'total_stock_value_squared'
p3622
g4
sS'other_squared'
p3623
g4
sS'loan_advances_log'
p3624
g4
sS'deferred_income_log'
p3625
g4
ssS'CARTER REBECCA C'
p3626
(dp3627
S'expenses_log'
p3628
g4
sg5
I312
sg6
g7
sS'bonus_log'
p3629
g4
sS'director_fees_log'
p3630
g4
sS'restricted_stock_squared'
p3631
g4
sg11
g7
sS'total_payments_squared'
p3632
g4
sg13
I00
sg14
I-159792
sg15
F0.5033620439731037
sg16
S'rebecca.carter@enron.com'
p3633
sg18
I75000
sS'restricted_stock_log'
p3634
g4
sS'restricted_stock_deferred_log'
p3635
g4
sS'salary_log'
p3636
g4
sS'exercised_stock_options_squared'
p3637
g4
sS'deferred_income_squared'
p3638
g4
sg24
I-307301
sg25
F0.709480122324159
sg26
I196
sg27
g7
sg28
I15
sg29
I540
sS'exercised_stock_options_log'
p3639
g4
sg31
g7
sS'bonus_squared'
p3640
g4
sS'total_stock_value_log'
p3641
g4
sS'long_term_incentive_squared'
p3642
g4
sS'salary_squared'
p3643
g4
sg36
I300000
sS'expenses_squared'
p3644
g4
sg38
g7
sg39
I29
sS'deferral_payments_squared'
p3645
g4
sS'deferral_payments_log'
p3646
g4
sS'other_log'
p3647
g4
sg43
I7
sS'restricted_stock_deferred_squared'
p3648
g4
sS'total_payments_log'
p3649
g4
sS'director_fees_squared'
p3650
g4
sg47
I307301
sS'long_term_incentive_log'
p3651
g4
sg49
I261809
sg50
I477557
sg51
g7
sS'loan_advances_squared'
p3652
g4
sS'total_stock_value_squared'
p3653
g4
sS'other_squared'
p3654
g4
sS'loan_advances_log'
p3655
g4
sS'deferred_income_log'
p3656
g4
ssS'BUCHANAN HAROLD G'
p3657
(dp3658
S'expenses_log'
p3659
g4
sg5
I1088
sg6
g7
sS'bonus_log'
p3660
g4
sS'director_fees_log'
p3661
g4
sS'restricted_stock_squared'
p3662
g4
sg11
I600
sS'total_payments_squared'
p3663
g4
sg13
I00
sg14
g7
sg15
F0.00035952911880024653
sg16
S'john.buchanan@enron.com'
p3664
sg18
I304805
sS'restricted_stock_log'
p3665
g4
sS'restricted_stock_deferred_log'
p3666
g4
sS'salary_log'
p3667
g4
sS'exercised_stock_options_squared'
p3668
g4
sS'deferred_income_squared'
p3669
g4
sg24
g7
sg25
F0.018961253091508656
sg26
I23
sg27
g7
sg28
I125
sg29
I1215
sS'exercised_stock_options_log'
p3670
g4
sg31
g7
sS'bonus_squared'
p3671
g4
sS'total_stock_value_log'
p3672
g4
sS'long_term_incentive_squared'
p3673
g4
sS'salary_squared'
p3674
g4
sg36
I500000
sS'expenses_squared'
p3675
g4
sg38
I1014505
sg39
I0
sS'deferral_payments_squared'
p3676
g4
sS'deferral_payments_log'
p3677
g4
sS'other_log'
p3678
g4
sg43
I0
sS'restricted_stock_deferred_squared'
p3679
g4
sS'total_payments_log'
p3680
g4
sS'director_fees_squared'
p3681
g4
sg47
I189041
sS'long_term_incentive_log'
p3682
g4
sg49
I248017
sg50
I1054637
sg51
I825464
sS'loan_advances_squared'
p3683
g4
sS'total_stock_value_squared'
p3684
g4
sS'other_squared'
p3685
g4
sS'loan_advances_log'
p3686
g4
sS'deferred_income_log'
p3687
g4
ssS'YEAP SOON'
p3688
(dp3689
S'expenses_log'
p3690
g4
sg5
g7
sg6
g7
sS'bonus_log'
p3691
g4
sS'director_fees_log'
p3692
g4
sS'restricted_stock_squared'
p3693
g4
sg11
I55097
sS'total_payments_squared'
p3694
g4
sg13
I00
sg14
g7
sS'restricted_stock_log'
p3695
g4
sg16
g7
sg18
g7
sS'exercised_stock_options_squared'
p3696
g4
sS'restricted_stock_deferred_log'
p3697
g4
sS'salary_log'
p3698
g4
sS'deferred_income_squared'
p3699
g4
sg24
g7
sg25
g4
sg26
g7
sg27
g7
sg28
g7
sg29
g7
sS'exercised_stock_options_log'
p3700
g4
sg31
g7
sS'bonus_squared'
p3701
g4
sS'total_stock_value_log'
p3702
g4
sS'long_term_incentive_squared'
p3703
g4
sS'salary_squared'
p3704
g4
sg36
g7
sS'expenses_squared'
p3705
g4
sg38
I192758
sg39
g7
sS'deferral_payments_squared'
p3706
g4
sS'deferral_payments_log'
p3707
g4
sS'other_log'
p3708
g4
sg43
g7
sS'restricted_stock_deferred_squared'
p3709
g4
sS'total_payments_log'
p3710
g4
sS'director_fees_squared'
p3711
g4
sg47
g7
sS'long_term_incentive_log'
p3712
g4
sg49
g7
sg50
I55097
sg51
I192758
sS'loan_advances_squared'
p3713
g4
sS'total_stock_value_squared'
p3714
g4
sS'other_squared'
p3715
g4
sS'loan_advances_log'
p3716
g4
sS'deferred_income_log'
p3717
g4
ssS'MURRAY JULIA H'
p3718
(dp3719
S'expenses_log'
p3720
g4
sg5
I2192
sg6
g7
sS'bonus_log'
p3721
g4
sS'director_fees_log'
p3722
g4
sS'restricted_stock_squared'
p3723
g4
sg11
I57580
sS'total_payments_squared'
p3724
g4
sg13
I00
sg14
g7
sg15
F0.033265063589978675
sg16
S'julia.murray@enron.com'
p3725
sg18
I125000
sS'restricted_stock_log'
p3726
g4
sS'restricted_stock_deferred_log'
p3727
g4
sS'salary_log'
p3728
g4
sS'exercised_stock_options_squared'
p3729
g4
sS'deferred_income_squared'
p3730
g4
sg24
g7
sg25
F0.1823871256146625
sg26
I395
sg27
g7
sg28
I45
sg29
I330
sS'exercised_stock_options_log'
p3731
g4
sg31
g7
sS'bonus_squared'
p3732
g4
sS'total_stock_value_log'
p3733
g4
sS'long_term_incentive_squared'
p3734
g4
sS'salary_squared'
p3735
g4
sg36
I400000
sS'expenses_squared'
p3736
g4
sg38
I597461
sg39
I11
sS'deferral_payments_squared'
p3737
g4
sS'deferral_payments_log'
p3738
g4
sS'other_log'
p3739
g4
sg43
I2
sS'restricted_stock_deferred_squared'
p3740
g4
sS'total_payments_log'
p3741
g4
sS'director_fees_squared'
p3742
g4
sg47
I196983
sS'long_term_incentive_log'
p3743
g4
sg49
I229284
sg50
I812194
sg51
I400478
sS'loan_advances_squared'
p3744
g4
sS'total_stock_value_squared'
p3745
g4
sS'other_squared'
p3746
g4
sS'loan_advances_log'
p3747
g4
sS'deferred_income_log'
p3748
g4
ssS'GARLAND C KEVIN'
p3749
(dp3750
S'expenses_log'
p3751
g4
sg5
I209
sg6
g7
sS'bonus_log'
p3752
g4
sS'director_fees_log'
p3753
g4
sS'restricted_stock_squared'
p3754
g4
sg11
I48405
sS'total_payments_squared'
p3755
g4
sg13
I00
sg14
g7
sg15
F0.7221640706775609
sg16
S'kevin.garland@enron.com'
p3756
sg18
I375304
sS'restricted_stock_log'
p3757
g4
sS'restricted_stock_deferred_log'
p3758
g4
sS'salary_log'
p3759
g4
sS'exercised_stock_options_squared'
p3760
g4
sS'deferred_income_squared'
p3761
g4
sg24
g7
sg25
F0.849802371541502
sg26
I178
sg27
g7
sg28
I44
sg29
I60814
sS'exercised_stock_options_log'
p3762
g4
sg31
g7
sS'bonus_squared'
p3763
g4
sS'total_stock_value_log'
p3764
g4
sS'long_term_incentive_squared'
p3765
g4
sS'salary_squared'
p3766
g4
sg36
I850000
sS'expenses_squared'
p3767
g4
sg38
I896153
sg39
I10
sS'deferral_payments_squared'
p3768
g4
sS'deferral_payments_log'
p3769
g4
sS'other_log'
p3770
g4
sg43
I27
sS'restricted_stock_deferred_squared'
p3771
g4
sS'total_payments_log'
p3772
g4
sS'director_fees_squared'
p3773
g4
sg47
I259907
sS'long_term_incentive_log'
p3774
g4
sg49
I231946
sg50
I1566469
sg51
I636246
sS'loan_advances_squared'
p3775
g4
sS'total_stock_value_squared'
p3776
g4
sS'other_squared'
p3777
g4
sS'loan_advances_log'
p3778
g4
sS'deferred_income_log'
p3779
g4
ssS'DODSON KEITH'
p3780
(dp3781
S'expenses_log'
p3782
g4
sg5
I176
sg6
g7
sS'bonus_log'
p3783
g4
sS'director_fees_log'
p3784
g4
sS'restricted_stock_squared'
p3785
g4
sg11
I28164
sS'total_payments_squared'
p3786
g4
sg13
I00
sg14
g7
sg15
F0.446786703601108
sg16
S'keith.dodson@enron.com'
p3787
sg18
g7
sS'restricted_stock_log'
p3788
g4
sS'restricted_stock_deferred_log'
p3789
g4
sS'salary_log'
p3790
g4
sS'exercised_stock_options_squared'
p3791
g4
sS'deferred_income_squared'
p3792
g4
sg24
g7
sg25
F0.6684210526315789
sg26
I114
sg27
g7
sg28
I14
sg29
I774
sS'exercised_stock_options_log'
p3793
g4
sg31
g7
sS'bonus_squared'
p3794
g4
sS'total_stock_value_log'
p3795
g4
sS'long_term_incentive_squared'
p3796
g4
sS'salary_squared'
p3797
g4
sg36
I70000
sS'expenses_squared'
p3798
g4
sg38
g7
sg39
I10
sS'deferral_payments_squared'
p3799
g4
sS'deferral_payments_log'
p3800
g4
sS'other_log'
p3801
g4
sg43
I3
sS'restricted_stock_deferred_squared'
p3802
g4
sS'total_payments_log'
p3803
g4
sS'director_fees_squared'
p3804
g4
sg47
g7
sS'long_term_incentive_log'
p3805
g4
sg49
I221003
sg50
I319941
sg51
g7
sS'loan_advances_squared'
p3806
g4
sS'total_stock_value_squared'
p3807
g4
sS'other_squared'
p3808
g4
sS'loan_advances_log'
p3809
g4
sS'deferred_income_log'
p3810
g4
ssS'YEAGER F SCOTT'
p3811
(dp3812
S'expenses_log'
p3813
g4
sg5
g7
sg6
g7
sS'bonus_log'
p3814
g4
sS'director_fees_log'
p3815
g4
sS'restricted_stock_squared'
p3816
g4
sg11
I53947
sS'total_payments_squared'
p3817
g4
sg13
I01
sg14
g7
sS'restricted_stock_log'
p3818
g4
sg16
S'scott.yeager@enron.com'
p3819
sg18
g7
sS'exercised_stock_options_squared'
p3820
g4
sS'restricted_stock_deferred_log'
p3821
g4
sS'salary_log'
p3822
g4
sS'deferred_income_squared'
p3823
g4
sg24
g7
sg25
g4
sg26
g7
sg27
g7
sg28
g7
sg29
I147950
sS'exercised_stock_options_log'
p3824
g4
sg31
g7
sS'bonus_squared'
p3825
g4
sS'total_stock_value_log'
p3826
g4
sS'long_term_incentive_squared'
p3827
g4
sS'salary_squared'
p3828
g4
sg36
g7
sS'expenses_squared'
p3829
g4
sg38
I11884758
sg39
g7
sS'deferral_payments_squared'
p3830
g4
sS'deferral_payments_log'
p3831
g4
sS'other_log'
p3832
g4
sg43
g7
sS'restricted_stock_deferred_squared'
p3833
g4
sS'total_payments_log'
p3834
g4
sS'director_fees_squared'
p3835
g4
sg47
I3576206
sS'long_term_incentive_log'
p3836
g4
sg49
I158403
sg50
I360300
sg51
I8308552
sS'loan_advances_squared'
p3837
g4
sS'total_stock_value_squared'
p3838
g4
sS'other_squared'
p3839
g4
sS'loan_advances_log'
p3840
g4
sS'deferred_income_log'
p3841
g4
ssS'HIRKO JOSEPH'
p3842
(dp3843
S'expenses_log'
p3844
g4
sg5
g7
sg6
I10259
sS'bonus_log'
p3845
g4
sS'director_fees_log'
p3846
g4
sS'restricted_stock_squared'
p3847
g4
sg11
I77978
sS'total_payments_squared'
p3848
g4
sg13
I01
sg14
g7
sS'restricted_stock_log'
p3849
g4
sg16
S'joe.hirko@enron.com'
p3850
sg18
g7
sS'exercised_stock_options_squared'
p3851
g4
sS'restricted_stock_deferred_log'
p3852
g4
sS'salary_log'
p3853
g4
sS'deferred_income_squared'
p3854
g4
sg24
g7
sg25
g4
sg26
g7
sg27
g7
sg28
g7
sg29
I2856
sS'exercised_stock_options_log'
p3855
g4
sg31
g7
sS'bonus_squared'
p3856
g4
sS'total_stock_value_log'
p3857
g4
sS'long_term_incentive_squared'
p3858
g4
sS'salary_squared'
p3859
g4
sg36
g7
sS'expenses_squared'
p3860
g4
sg38
I30766064
sg39
g7
sS'deferral_payments_squared'
p3861
g4
sS'deferral_payments_log'
p3862
g4
sS'other_log'
p3863
g4
sg43
g7
sS'restricted_stock_deferred_squared'
p3864
g4
sS'total_payments_log'
p3865
g4
sS'director_fees_squared'
p3866
g4
sg47
g7
sS'long_term_incentive_log'
p3867
g4
sg49
g7
sg50
I91093
sg51
I30766064
sS'loan_advances_squared'
p3868
g4
sS'total_stock_value_squared'
p3869
g4
sS'other_squared'
p3870
g4
sS'loan_advances_log'
p3871
g4
sS'deferred_income_log'
p3872
g4
ssS'DIETRICH JANET R'
p3873
(dp3874
S'expenses_log'
p3875
g4
sg5
I2572
sg6
g7
sS'bonus_log'
p3876
g4
sS'director_fees_log'
p3877
g4
sS'restricted_stock_squared'
p3878
g4
sg11
I3475
sS'total_payments_squared'
p3879
g4
sg13
I00
sg14
g7
sg15
F0.710453859697763
sg16
S'janet.dietrich@enron.com'
p3880
sg18
I556416
sS'restricted_stock_log'
p3881
g4
sS'restricted_stock_deferred_log'
p3882
g4
sS'salary_log'
p3883
g4
sS'exercised_stock_options_squared'
p3884
g4
sS'deferred_income_squared'
p3885
g4
sg24
g7
sg25
F0.8428842504743833
sg26
I1902
sg27
g7
sg28
I63
sg29
I473
sS'exercised_stock_options_log'
p3886
g4
sg31
g7
sS'bonus_squared'
p3887
g4
sS'total_stock_value_log'
p3888
g4
sS'long_term_incentive_squared'
p3889
g4
sS'salary_squared'
p3890
g4
sg36
I600000
sS'expenses_squared'
p3891
g4
sg38
I1865087
sg39
I305
sS'deferral_payments_squared'
p3892
g4
sS'deferral_payments_log'
p3893
g4
sS'other_log'
p3894
g4
sg43
I14
sS'restricted_stock_deferred_squared'
p3895
g4
sS'total_payments_log'
p3896
g4
sS'director_fees_squared'
p3897
g4
sg47
I315068
sS'long_term_incentive_log'
p3898
g4
sg49
I250100
sg50
I1410464
sg51
I1550019
sS'loan_advances_squared'
p3899
g4
sS'total_stock_value_squared'
p3900
g4
sS'other_squared'
p3901
g4
sS'loan_advances_log'
p3902
g4
sS'deferred_income_log'
p3903
g4
ssS'DERRICK JR. JAMES V'
p3904
(dp3905
S'expenses_log'
p3906
g4
sg5
I2181
sg6
g7
sS'bonus_log'
p3907
g4
sS'director_fees_log'
p3908
g4
sS'restricted_stock_squared'
p3909
g4
sg11
I51124
sS'total_payments_squared'
p3910
g4
sg13
I00
sg14
I-1284000
sg15
F0.23095956263549816
sg16
S'james.derrick@enron.com'
p3911
sg18
I484000
sS'restricted_stock_log'
p3912
g4
sS'restricted_stock_deferred_log'
p3913
g4
sS'salary_log'
p3914
g4
sS'exercised_stock_options_squared'
p3915
g4
sS'deferred_income_squared'
p3916
g4
sg24
I-1787380
sg25
F0.48058252427184467
sg26
I1401
sg27
g7
sg28
I909
sg29
I7482
sS'exercised_stock_options_log'
p3917
g4
sg31
g7
sS'bonus_squared'
p3918
g4
sS'total_stock_value_log'
p3919
g4
sS'long_term_incentive_squared'
p3920
g4
sS'salary_squared'
p3921
g4
sg36
I800000
sS'expenses_squared'
p3922
g4
sg38
I8831913
sg39
I64
sS'deferral_payments_squared'
p3923
g4
sS'deferral_payments_log'
p3924
g4
sS'other_log'
p3925
g4
sg43
I20
sS'restricted_stock_deferred_squared'
p3926
g4
sS'total_payments_log'
p3927
g4
sS'director_fees_squared'
p3928
g4
sg47
I1787380
sS'long_term_incentive_log'
p3929
g4
sg49
I492375
sg50
I550981
sg51
I8831913
sS'loan_advances_squared'
p3930
g4
sS'total_stock_value_squared'
p3931
g4
sS'other_squared'
p3932
g4
sS'loan_advances_log'
p3933
g4
sS'deferred_income_log'
p3934
g4
ssS'FREVERT MARK A'
p3935
(dp3936
S'expenses_log'
p3937
g4
sg5
I3275
sg6
I6426990
sS'bonus_log'
p3938
g4
sS'director_fees_log'
p3939
g4
sS'restricted_stock_squared'
p3940
g4
sg11
I86987
sS'total_payments_squared'
p3941
g4
sg13
I00
sg14
I-3367011
sg15
F0.9585693198286831
sg16
S'mark.frevert@enron.com'
p3942
sg18
I1617011
sS'restricted_stock_log'
p3943
g4
sS'restricted_stock_deferred_log'
p3944
g4
sS'salary_log'
p3945
g4
sS'exercised_stock_options_squared'
p3946
g4
sS'deferred_income_squared'
p3947
g4
sg24
g7
sg25
F0.9790655339805825
sg26
I2979
sg27
I2000000
sg28
I21
sg29
I7427621
sS'exercised_stock_options_log'
p3948
g4
sg31
g7
sS'bonus_squared'
p3949
g4
sS'total_stock_value_log'
p3950
g4
sS'long_term_incentive_squared'
p3951
g4
sS'salary_squared'
p3952
g4
sg36
I2000000
sS'expenses_squared'
p3953
g4
sg38
I14622185
sg39
I242
sS'deferral_payments_squared'
p3954
g4
sS'deferral_payments_log'
p3955
g4
sS'other_log'
p3956
g4
sg43
I6
sS'restricted_stock_deferred_squared'
p3957
g4
sS'total_payments_log'
p3958
g4
sS'director_fees_squared'
p3959
g4
sg47
I4188667
sS'long_term_incentive_log'
p3960
g4
sg49
I1060932
sg50
I17252530
sg51
I10433518
sS'loan_advances_squared'
p3961
g4
sS'total_stock_value_squared'
p3962
g4
sS'other_squared'
p3963
g4
sS'loan_advances_log'
p3964
g4
sS'deferred_income_log'
p3965
g4
ssS'PAI LOU L'
p3966
(dp3967
S'expenses_log'
p3968
g4
sg5
g7
sg6
g7
sS'bonus_log'
p3969
g4
sS'director_fees_log'
p3970
g4
sS'restricted_stock_squared'
p3971
g4
sg11
I32047
sS'total_payments_squared'
p3972
g4
sg13
I00
sg14
g7
sS'restricted_stock_log'
p3973
g4
sg16
S'lou.pai@enron.com'
p3974
sg18
g7
sS'exercised_stock_options_squared'
p3975
g4
sS'restricted_stock_deferred_log'
p3976
g4
sS'salary_log'
p3977
g4
sS'deferred_income_squared'
p3978
g4
sg24
g7
sg25
g4
sg26
g7
sg27
g7
sg28
g7
sg29
I1829457
sS'exercised_stock_options_log'
p3979
g4
sg31
g7
sS'bonus_squared'
p3980
g4
sS'total_stock_value_log'
p3981
g4
sS'long_term_incentive_squared'
p3982
g4
sS'salary_squared'
p3983
g4
sg36
I1000000
sS'expenses_squared'
p3984
g4
sg38
I23817930
sg39
g7
sS'deferral_payments_squared'
p3985
g4
sS'deferral_payments_log'
p3986
g4
sS'other_log'
p3987
g4
sg43
g7
sS'restricted_stock_deferred_squared'
p3988
g4
sS'total_payments_log'
p3989
g4
sS'director_fees_squared'
p3990
g4
sg47
I8453763
sS'long_term_incentive_log'
p3991
g4
sg49
I261879
sg50
I3123383
sg51
I15364167
sS'loan_advances_squared'
p3992
g4
sS'total_stock_value_squared'
p3993
g4
sS'other_squared'
p3994
g4
sS'loan_advances_log'
p3995
g4
sS'deferred_income_log'
p3996
g4
ssS'BAY FRANKLIN R'
p3997
(dp3998
S'expenses_log'
p3999
g4
sg5
g7
sg6
I260455
sS'bonus_log'
p4000
g4
sS'director_fees_log'
p4001
g4
sS'restricted_stock_squared'
p4002
g4
sg11
I129142
sS'total_payments_squared'
p4003
g4
sg13
I00
sg14
I-201641
sS'restricted_stock_log'
p4004
g4
sg16
S'frank.bay@enron.com'
p4005
sg18
g7
sS'exercised_stock_options_squared'
p4006
g4
sS'restricted_stock_deferred_log'
p4007
g4
sS'salary_log'
p4008
g4
sS'deferred_income_squared'
p4009
g4
sg24
I-82782
sg25
g4
sg26
g7
sg27
g7
sg28
g7
sg29
I69
sS'exercised_stock_options_log'
p4010
g4
sg31
g7
sS'bonus_squared'
p4011
g4
sS'total_stock_value_log'
p4012
g4
sS'long_term_incentive_squared'
p4013
g4
sS'salary_squared'
p4014
g4
sg36
I400000
sS'expenses_squared'
p4015
g4
sg38
I63014
sg39
g7
sS'deferral_payments_squared'
p4016
g4
sS'deferral_payments_log'
p4017
g4
sS'other_log'
p4018
g4
sg43
g7
sS'restricted_stock_deferred_squared'
p4019
g4
sS'total_payments_log'
p4020
g4
sS'director_fees_squared'
p4021
g4
sg47
I145796
sS'long_term_incentive_log'
p4022
g4
sg49
I239671
sg50
I827696
sg51
g7
sS'loan_advances_squared'
p4023
g4
sS'total_stock_value_squared'
p4024
g4
sS'other_squared'
p4025
g4
sS'loan_advances_log'
p4026
g4
sS'deferred_income_log'
p4027
g4
ssS'HAYSLETT RODERICK J'
p4028
(dp4029
S'expenses_log'
p4030
g4
sg5
I2649
sg6
g7
sS'bonus_log'
p4031
g4
sS'director_fees_log'
p4032
g4
sS'restricted_stock_squared'
p4033
g4
sg11
g7
sS'total_payments_squared'
p4034
g4
sg13
I00
sg14
g7
sg15
F0.030131719473122105
sg16
S'rod.hayslett@enron.com'
p4035
sg18
g7
sS'restricted_stock_log'
p4036
g4
sS'restricted_stock_deferred_log'
p4037
g4
sS'salary_log'
p4038
g4
sS'exercised_stock_options_squared'
p4039
g4
sS'deferred_income_squared'
p4040
g4
sg24
g7
sg25
F0.17358490566037735
sg26
I571
sg27
g7
sg28
I1061
sg29
g7
sS'exercised_stock_options_log'
p4041
g4
sg31
g7
sS'bonus_squared'
p4042
g4
sS'total_stock_value_log'
p4043
g4
sS'long_term_incentive_squared'
p4044
g4
sS'salary_squared'
p4045
g4
sg36
g7
sS'expenses_squared'
p4046
g4
sg38
I346663
sg39
I35
sS'deferral_payments_squared'
p4047
g4
sS'deferral_payments_log'
p4048
g4
sS'other_log'
p4049
g4
sg43
I38
sS'restricted_stock_deferred_squared'
p4050
g4
sS'total_payments_log'
p4051
g4
sS'director_fees_squared'
p4052
g4
sg47
I346663
sS'long_term_incentive_log'
p4053
g4
sg49
g7
sg50
g7
sg51
g7
sS'loan_advances_squared'
p4054
g4
sS'total_stock_value_squared'
p4055
g4
sS'other_squared'
p4056
g4
sS'loan_advances_log'
p4057
g4
sS'deferred_income_log'
p4058
g4
ssS'FUGH JOHN L'
p4059
(dp4060
S'expenses_log'
p4061
g4
sg5
g7
sg6
I50591
sS'bonus_log'
p4062
g4
sS'director_fees_log'
p4063
g4
sS'restricted_stock_squared'
p4064
g4
sg11
g7
sS'total_payments_squared'
p4065
g4
sg13
I00
sg14
g7
sS'restricted_stock_log'
p4066
g4
sg16
g7
sg18
g7
sS'exercised_stock_options_squared'
p4067
g4
sS'restricted_stock_deferred_log'
p4068
g4
sS'salary_log'
p4069
g4
sS'deferred_income_squared'
p4070
g4
sg24
g7
sg25
g4
sg26
g7
sg27
g7
sg28
g7
sg29
g7
sS'exercised_stock_options_log'
p4071
g4
sg31
g7
sS'bonus_squared'
p4072
g4
sS'total_stock_value_log'
p4073
g4
sS'long_term_incentive_squared'
p4074
g4
sS'salary_squared'
p4075
g4
sg36
g7
sS'expenses_squared'
p4076
g4
sg38
I176378
sg39
g7
sS'deferral_payments_squared'
p4077
g4
sS'deferral_payments_log'
p4078
g4
sS'other_log'
p4079
g4
sg43
g7
sS'restricted_stock_deferred_squared'
p4080
g4
sS'total_payments_log'
p4081
g4
sS'director_fees_squared'
p4082
g4
sg47
g7
sS'long_term_incentive_log'
p4083
g4
sg49
g7
sg50
I50591
sg51
I176378
sS'loan_advances_squared'
p4084
g4
sS'total_stock_value_squared'
p4085
g4
sS'other_squared'
p4086
g4
sS'loan_advances_log'
p4087
g4
sS'deferred_income_log'
p4088
g4
ssS'FALLON JAMES B'
p4089
(dp4090
S'expenses_log'
p4091
g4
sg5
I1755
sg6
g7
sS'bonus_log'
p4092
g4
sS'director_fees_log'
p4093
g4
sS'restricted_stock_squared'
p4094
g4
sg11
I95924
sS'total_payments_squared'
p4095
g4
sg13
I00
sg14
g7
sg15
F0.8457968288094598
sg16
S'jim.fallon@enron.com'
p4096
sg18
I374347
sS'restricted_stock_log'
p4097
g4
sS'restricted_stock_deferred_log'
p4098
g4
sS'salary_log'
p4099
g4
sS'exercised_stock_options_squared'
p4100
g4
sS'deferred_income_squared'
p4101
g4
sg24
g7
sg25
F0.919672131147541
sg26
I1604
sg27
g7
sg28
I75
sg29
I401481
sS'exercised_stock_options_log'
p4102
g4
sg31
g7
sS'bonus_squared'
p4103
g4
sS'total_stock_value_log'
p4104
g4
sS'long_term_incentive_squared'
p4105
g4
sS'salary_squared'
p4106
g4
sg36
I2500000
sS'expenses_squared'
p4107
g4
sg38
I2332399
sg39
I42
sS'deferral_payments_squared'
p4108
g4
sS'deferral_payments_log'
p4109
g4
sS'other_log'
p4110
g4
sg43
I37
sS'restricted_stock_deferred_squared'
p4111
g4
sS'total_payments_log'
p4112
g4
sS'director_fees_squared'
p4113
g4
sg47
I1392142
sS'long_term_incentive_log'
p4114
g4
sg49
I304588
sg50
I3676340
sg51
I940257
sS'loan_advances_squared'
p4115
g4
sS'total_stock_value_squared'
p4116
g4
sS'other_squared'
p4117
g4
sS'loan_advances_log'
p4118
g4
sS'deferred_income_log'
p4119
g4
ssS'KOENIG MARK E'
p4120
(dp4121
S'expenses_log'
p4122
g4
sg5
I2374
sg6
g7
sS'bonus_log'
p4123
g4
sS'director_fees_log'
p4124
g4
sS'restricted_stock_squared'
p4125
g4
sg11
I127017
sS'total_payments_squared'
p4126
g4
sg13
I01
sg14
g7
sg15
F0.9227042320033393
sg16
S'mark.koenig@enron.com'
p4127
sg18
I300000
sS'restricted_stock_log'
p4128
g4
sS'restricted_stock_deferred_log'
p4129
g4
sS'salary_log'
p4130
g4
sS'exercised_stock_options_squared'
p4131
g4
sS'deferred_income_squared'
p4132
g4
sg24
g7
sg25
F0.9605749486652977
sg26
I2271
sg27
g7
sg28
I61
sg29
I150458
sS'exercised_stock_options_log'
p4133
g4
sg31
g7
sS'bonus_squared'
p4134
g4
sS'total_stock_value_log'
p4135
g4
sS'long_term_incentive_squared'
p4136
g4
sS'salary_squared'
p4137
g4
sg36
I700000
sS'expenses_squared'
p4138
g4
sg38
I1920055
sg39
I53
sS'deferral_payments_squared'
p4139
g4
sS'deferral_payments_log'
p4140
g4
sS'other_log'
p4141
g4
sg43
I15
sS'restricted_stock_deferred_squared'
p4142
g4
sS'total_payments_log'
p4143
g4
sS'director_fees_squared'
p4144
g4
sg47
I1248318
sS'long_term_incentive_log'
p4145
g4
sg49
I309946
sg50
I1587421
sg51
I671737
sS'loan_advances_squared'
p4146
g4
sS'total_stock_value_squared'
p4147
g4
sS'other_squared'
p4148
g4
sS'loan_advances_log'
p4149
g4
sS'deferred_income_log'
p4150
g4
ssS'SAVAGE FRANK'
p4151
(dp4152
S'expenses_log'
p4153
g4
sg5
g7
sg6
g7
sS'bonus_log'
p4154
g4
sS'director_fees_log'
p4155
g4
sS'restricted_stock_squared'
p4156
g4
sg11
g7
sS'total_payments_squared'
p4157
g4
sg13
I00
sg14
I-121284
sS'restricted_stock_log'
p4158
g4
sg16
g7
sg18
g7
sS'exercised_stock_options_squared'
p4159
g4
sS'restricted_stock_deferred_log'
p4160
g4
sS'salary_log'
p4161
g4
sS'deferred_income_squared'
p4162
g4
sg24
g7
sg25
g4
sg26
g7
sg27
g7
sg28
g7
sg29
g7
sS'exercised_stock_options_log'
p4163
g4
sg31
I125034
sS'bonus_squared'
p4164
g4
sS'total_stock_value_log'
p4165
g4
sS'long_term_incentive_squared'
p4166
g4
sS'salary_squared'
p4167
g4
sg36
g7
sS'expenses_squared'
p4168
g4
sg38
g7
sg39
g7
sS'deferral_payments_squared'
p4169
g4
sS'deferral_payments_log'
p4170
g4
sS'other_log'
p4171
g4
sg43
g7
sS'restricted_stock_deferred_squared'
p4172
g4
sS'total_payments_log'
p4173
g4
sS'director_fees_squared'
p4174
g4
sg47
g7
sS'long_term_incentive_log'
p4175
g4
sg49
g7
sg50
I3750
sg51
g7
sS'loan_advances_squared'
p4176
g4
sS'total_stock_value_squared'
p4177
g4
sS'other_squared'
p4178
g4
sS'loan_advances_log'
p4179
g4
sS'deferred_income_log'
p4180
g4
ssS'IZZO LAWRENCE L'
p4181
(dp4182
S'expenses_log'
p4183
g4
sg5
I496
sg6
g7
sS'bonus_log'
p4184
g4
sS'director_fees_log'
p4185
g4
sS'restricted_stock_squared'
p4186
g4
sg11
I28093
sS'total_payments_squared'
p4187
g4
sg13
I00
sg14
g7
sg15
F0.8328777453105854
sg16
S'larry.izzo@enron.com'
p4188
sg18
I312500
sS'restricted_stock_log'
p4189
g4
sS'restricted_stock_deferred_log'
p4190
g4
sS'salary_log'
p4191
g4
sS'exercised_stock_options_squared'
p4192
g4
sS'deferred_income_squared'
p4193
g4
sg24
g7
sg25
F0.912621359223301
sg26
I437
sg27
g7
sg28
I19
sg29
I1553729
sS'exercised_stock_options_log'
p4194
g4
sg31
g7
sS'bonus_squared'
p4195
g4
sS'total_stock_value_log'
p4196
g4
sS'long_term_incentive_squared'
p4197
g4
sS'salary_squared'
p4198
g4
sg36
g7
sS'expenses_squared'
p4199
g4
sg38
I5819980
sg39
I28
sS'deferral_payments_squared'
p4200
g4
sS'deferral_payments_log'
p4201
g4
sS'other_log'
p4202
g4
sg43
I5
sS'restricted_stock_deferred_squared'
p4203
g4
sS'total_payments_log'
p4204
g4
sS'director_fees_squared'
p4205
g4
sg47
I3654808
sS'long_term_incentive_log'
p4206
g4
sg49
I85274
sg50
I1979596
sg51
I2165172
sS'loan_advances_squared'
p4207
g4
sS'total_stock_value_squared'
p4208
g4
sS'other_squared'
p4209
g4
sS'loan_advances_log'
p4210
g4
sS'deferred_income_log'
p4211
g4
ssS'TILNEY ELIZABETH A'
p4212
(dp4213
S'expenses_log'
p4214
g4
sg5
I460
sg6
g7
sS'bonus_log'
p4215
g4
sS'director_fees_log'
p4216
g4
sS'restricted_stock_squared'
p4217
g4
sg11
g7
sS'total_payments_squared'
p4218
g4
sg13
I00
sg14
I-575000
sg15
F0.6973470303912552
sg16
S'elizabeth.tilney@enron.com'
p4219
sg18
I275000
sS'restricted_stock_log'
p4220
g4
sS'restricted_stock_deferred_log'
p4221
g4
sS'salary_log'
p4222
g4
sS'exercised_stock_options_squared'
p4223
g4
sS'deferred_income_squared'
p4224
g4
sg24
g7
sg25
F0.8350730688935282
sg26
I379
sg27
g7
sg28
I19
sg29
I152055
sS'exercised_stock_options_log'
p4225
g4
sg31
g7
sS'bonus_squared'
p4226
g4
sS'total_stock_value_log'
p4227
g4
sS'long_term_incentive_squared'
p4228
g4
sS'salary_squared'
p4229
g4
sg36
I300000
sS'expenses_squared'
p4230
g4
sg38
I1168042
sg39
I10
sS'deferral_payments_squared'
p4231
g4
sS'deferral_payments_log'
p4232
g4
sS'other_log'
p4233
g4
sg43
I11
sS'restricted_stock_deferred_squared'
p4234
g4
sS'total_payments_log'
p4235
g4
sS'director_fees_squared'
p4236
g4
sg47
I576792
sS'long_term_incentive_log'
p4237
g4
sg49
I247338
sg50
I399393
sg51
I591250
sS'loan_advances_squared'
p4238
g4
sS'total_stock_value_squared'
p4239
g4
sS'other_squared'
p4240
g4
sS'loan_advances_log'
p4241
g4
sS'deferred_income_log'
p4242
g4
ssS'MARTIN AMANDA K'
p4243
(dp4244
S'expenses_log'
p4245
g4
sg5
I1522
sg6
I85430
sS'bonus_log'
p4246
g4
sS'director_fees_log'
p4247
g4
sS'restricted_stock_squared'
p4248
g4
sg11
I8211
sS'total_payments_squared'
p4249
g4
sg13
I00
sg14
g7
sg15
F0.07663290225391463
sg16
S'a..martin@enron.com'
p4250
sg18
I5145434
sS'restricted_stock_log'
p4251
g4
sS'restricted_stock_deferred_log'
p4252
g4
sS'salary_log'
p4253
g4
sS'exercised_stock_options_squared'
p4254
g4
sS'deferred_income_squared'
p4255
g4
sg24
g7
sg25
F0.2768264840182648
sg26
I477
sg27
g7
sg28
I230
sg29
I2818454
sS'exercised_stock_options_log'
p4256
g4
sg31
g7
sS'bonus_squared'
p4257
g4
sS'total_stock_value_log'
p4258
g4
sS'long_term_incentive_squared'
p4259
g4
sS'salary_squared'
p4260
g4
sg36
g7
sS'expenses_squared'
p4261
g4
sg38
I2070306
sg39
I8
sS'deferral_payments_squared'
p4262
g4
sS'deferral_payments_log'
p4263
g4
sS'other_log'
p4264
g4
sg43
I0
sS'restricted_stock_deferred_squared'
p4265
g4
sS'total_payments_log'
p4266
g4
sS'director_fees_squared'
p4267
g4
sg47
g7
sS'long_term_incentive_log'
p4268
g4
sg49
I349487
sg50
I8407016
sg51
I2070306
sS'loan_advances_squared'
p4269
g4
sS'total_stock_value_squared'
p4270
g4
sS'other_squared'
p4271
g4
sS'loan_advances_log'
p4272
g4
sS'deferred_income_log'
p4273
g4
ssS'BUY RICHARD B'
p4274
(dp4275
S'expenses_log'
p4276
g4
sg5
I3523
sg6
I649584
sS'bonus_log'
p4277
g4
sS'director_fees_log'
p4278
g4
sS'restricted_stock_squared'
p4279
g4
sg11
g7
sS'total_payments_squared'
p4280
g4
sg13
I00
sg14
I-694862
sg15
F0.3129737395471662
sg16
S'rick.buy@enron.com'
p4281
sg18
I769862
sS'restricted_stock_log'
p4282
g4
sS'restricted_stock_deferred_log'
p4283
g4
sS'salary_log'
p4284
g4
sS'exercised_stock_options_squared'
p4285
g4
sS'deferred_income_squared'
p4286
g4
sg24
g7
sg25
F0.5594405594405595
sg26
I2333
sg27
g7
sg28
I1053
sg29
I400572
sS'exercised_stock_options_log'
p4287
g4
sg31
g7
sS'bonus_squared'
p4288
g4
sS'total_stock_value_log'
p4289
g4
sS'long_term_incentive_squared'
p4290
g4
sS'salary_squared'
p4291
g4
sg36
I900000
sS'expenses_squared'
p4292
g4
sg38
I3444470
sg39
I156
sS'deferral_payments_squared'
p4293
g4
sS'deferral_payments_log'
p4294
g4
sS'other_log'
p4295
g4
sg43
I71
sS'restricted_stock_deferred_squared'
p4296
g4
sS'total_payments_log'
p4297
g4
sS'director_fees_squared'
p4298
g4
sg47
I901657
sS'long_term_incentive_log'
p4299
g4
sg49
I330546
sg50
I2355702
sg51
I2542813
sS'loan_advances_squared'
p4300
g4
sS'total_stock_value_squared'
p4301
g4
sS'other_squared'
p4302
g4
sS'loan_advances_log'
p4303
g4
sS'deferred_income_log'
p4304
g4
ssS'GRAMM WENDY L'
p4305
(dp4306
S'expenses_log'
p4307
g4
sg5
g7
sg6
g7
sS'bonus_log'
p4308
g4
sS'director_fees_log'
p4309
g4
sS'restricted_stock_squared'
p4310
g4
sg11
g7
sS'total_payments_squared'
p4311
g4
sg13
I00
sg14
g7
sS'restricted_stock_log'
p4312
g4
sg16
g7
sg18
g7
sS'exercised_stock_options_squared'
p4313
g4
sS'restricted_stock_deferred_log'
p4314
g4
sS'salary_log'
p4315
g4
sS'deferred_income_squared'
p4316
g4
sg24
g7
sg25
g4
sg26
g7
sg27
g7
sg28
g7
sg29
g7
sS'exercised_stock_options_log'
p4317
g4
sg31
I119292
sS'bonus_squared'
p4318
g4
sS'total_stock_value_log'
p4319
g4
sS'long_term_incentive_squared'
p4320
g4
sS'salary_squared'
p4321
g4
sg36
g7
sS'expenses_squared'
p4322
g4
sg38
g7
sg39
g7
sS'deferral_payments_squared'
p4323
g4
sS'deferral_payments_log'
p4324
g4
sS'other_log'
p4325
g4
sg43
g7
sS'restricted_stock_deferred_squared'
p4326
g4
sS'total_payments_log'
p4327
g4
sS'director_fees_squared'
p4328
g4
sg47
g7
sS'long_term_incentive_log'
p4329
g4
sg49
g7
sg50
I119292
sg51
g7
sS'loan_advances_squared'
p4330
g4
sS'total_stock_value_squared'
p4331
g4
sS'other_squared'
p4332
g4
sS'loan_advances_log'
p4333
g4
sS'deferred_income_log'
p4334
g4
ssS'CAUSEY RICHARD A'
p4335
(dp4336
S'expenses_log'
p4337
g4
sg5
I1892
sg6
g7
sS'bonus_log'
p4338
g4
sS'director_fees_log'
p4339
g4
sS'restricted_stock_squared'
p4340
g4
sg11
I30674
sS'total_payments_squared'
p4341
g4
sg13
I01
sg14
I-235000
sg15
F0.7270176014159063
sg16
S'richard.causey@enron.com'
p4342
sg18
I350000
sS'restricted_stock_log'
p4343
g4
sS'restricted_stock_deferred_log'
p4344
g4
sS'salary_log'
p4345
g4
sS'exercised_stock_options_squared'
p4346
g4
sS'deferred_income_squared'
p4347
g4
sg24
g7
sg25
F0.8526532715095312
sg26
I1585
sg27
g7
sg28
I49
sg29
I307895
sS'exercised_stock_options_log'
p4348
g4
sg31
g7
sS'bonus_squared'
p4349
g4
sS'total_stock_value_log'
p4350
g4
sS'long_term_incentive_squared'
p4351
g4
sS'salary_squared'
p4352
g4
sg36
I1000000
sS'expenses_squared'
p4353
g4
sg38
I2502063
sg39
I58
sS'deferral_payments_squared'
p4354
g4
sS'deferral_payments_log'
p4355
g4
sS'other_log'
p4356
g4
sg43
I12
sS'restricted_stock_deferred_squared'
p4357
g4
sS'total_payments_log'
p4358
g4
sS'director_fees_squared'
p4359
g4
sg47
I2502063
sS'long_term_incentive_log'
p4360
g4
sg49
I415189
sg50
I1868758
sg51
g7
sS'loan_advances_squared'
p4361
g4
sS'total_stock_value_squared'
p4362
g4
sS'other_squared'
p4363
g4
sS'loan_advances_log'
p4364
g4
sS'deferred_income_log'
p4365
g4
ssS'TAYLOR MITCHELL S'
p4366
(dp4367
S'expenses_log'
p4368
g4
sg5
I533
sg6
I227449
sS'bonus_log'
p4369
g4
sS'director_fees_log'
p4370
g4
sS'restricted_stock_squared'
p4371
g4
sg11
g7
sS'total_payments_squared'
p4372
g4
sg13
I00
sg14
g7
sg15
F0.28495079849545973
sg16
S'mitchell.taylor@enron.com'
p4373
sg18
g7
sS'restricted_stock_log'
p4374
g4
sS'restricted_stock_deferred_log'
p4375
g4
sS'salary_log'
p4376
g4
sS'exercised_stock_options_squared'
p4377
g4
sS'deferred_income_squared'
p4378
g4
sg24
g7
sg25
F0.5338078291814946
sg26
I300
sg27
g7
sg28
I29
sg29
g7
sS'exercised_stock_options_log'
p4379
g4
sg31
g7
sS'bonus_squared'
p4380
g4
sS'total_stock_value_log'
p4381
g4
sS'long_term_incentive_squared'
p4382
g4
sS'salary_squared'
p4383
g4
sg36
I600000
sS'expenses_squared'
p4384
g4
sg38
I3745048
sg39
I0
sS'deferral_payments_squared'
p4385
g4
sS'deferral_payments_log'
p4386
g4
sS'other_log'
p4387
g4
sg43
I0
sS'restricted_stock_deferred_squared'
p4388
g4
sS'total_payments_log'
p4389
g4
sS'director_fees_squared'
p4390
g4
sg47
I563798
sS'long_term_incentive_log'
p4391
g4
sg49
I265214
sg50
I1092663
sg51
I3181250
sS'loan_advances_squared'
p4392
g4
sS'total_stock_value_squared'
p4393
g4
sS'other_squared'
p4394
g4
sS'loan_advances_log'
p4395
g4
sS'deferred_income_log'
p4396
g4
ssS'DONAHUE JR JEFFREY M'
p4397
(dp4398
S'expenses_log'
p4399
g4
sg5
I865
sg6
g7
sS'bonus_log'
p4400
g4
sS'director_fees_log'
p4401
g4
sS'restricted_stock_squared'
p4402
g4
sg11
I96268
sS'total_payments_squared'
p4403
g4
sg13
I00
sg14
I-300000
sg15
F1.1983708051537365
sg16
S'jeff.donahue@enron.com'
p4404
sg18
g7
sS'restricted_stock_log'
p4405
g4
sS'restricted_stock_deferred_log'
p4406
g4
sS'salary_log'
p4407
g4
sS'exercised_stock_options_squared'
p4408
g4
sS'deferred_income_squared'
p4409
g4
sg24
g7
sg25
F1.0947012401352876
sg26
I772
sg27
g7
sg28
I22
sg29
I891
sS'exercised_stock_options_log'
p4410
g4
sg31
g7
sS'bonus_squared'
p4411
g4
sS'total_stock_value_log'
p4412
g4
sS'long_term_incentive_squared'
p4413
g4
sS'salary_squared'
p4414
g4
sg36
I800000
sS'expenses_squared'
p4415
g4
sg38
I1080988
sg39
I188
sS'deferral_payments_squared'
p4416
g4
sS'deferral_payments_log'
p4417
g4
sS'other_log'
p4418
g4
sg43
I11
sS'restricted_stock_deferred_squared'
p4419
g4
sS'total_payments_log'
p4420
g4
sS'director_fees_squared'
p4421
g4
sg47
I315068
sS'long_term_incentive_log'
p4422
g4
sg49
I278601
sg50
I875760
sg51
I765920
sS'loan_advances_squared'
p4423
g4
sS'total_stock_value_squared'
p4424
g4
sS'other_squared'
p4425
g4
sS'loan_advances_log'
p4426
g4
sS'deferred_income_log'
p4427
g4
ssS'GLISAN JR BEN F'
p4428
(dp4429
S'expenses_log'
p4430
g4
sg5
I873
sg6
g7
sS'bonus_log'
p4431
g4
sS'director_fees_log'
p4432
g4
sS'restricted_stock_squared'
p4433
g4
sg11
I125978
sS'total_payments_squared'
p4434
g4
sg13
I01
sg14
g7
sg15
F1.0990774634610496
sg16
S'ben.glisan@enron.com'
p4435
sg18
I71023
sS'restricted_stock_log'
p4436
g4
sS'restricted_stock_deferred_log'
p4437
g4
sS'salary_log'
p4438
g4
sS'exercised_stock_options_squared'
p4439
g4
sS'deferred_income_squared'
p4440
g4
sg24
g7
sg25
F1.048368953880765
sg26
I874
sg27
g7
sg28
I16
sg29
I200308
sS'exercised_stock_options_log'
p4441
g4
sg31
g7
sS'bonus_squared'
p4442
g4
sS'total_stock_value_log'
p4443
g4
sS'long_term_incentive_squared'
p4444
g4
sS'salary_squared'
p4445
g4
sg36
I600000
sS'expenses_squared'
p4446
g4
sg38
I778546
sg39
I52
sS'deferral_payments_squared'
p4447
g4
sS'deferral_payments_log'
p4448
g4
sS'other_log'
p4449
g4
sg43
I6
sS'restricted_stock_deferred_squared'
p4450
g4
sS'total_payments_log'
p4451
g4
sS'director_fees_squared'
p4452
g4
sg47
I393818
sS'long_term_incentive_log'
p4453
g4
sg49
I274975
sg50
I1272284
sg51
I384728
sS'loan_advances_squared'
p4454
g4
sS'total_stock_value_squared'
p4455
g4
sS'other_squared'
p4456
g4
sS'loan_advances_log'
p4457
g4
sS'deferred_income_log'
p4458
g4
ss.