(lp0
S'poi'
p1
aS'from_messages'
p2
aS'from_poi_to_this_person'
p3
aS'from_this_person_to_poi'
p4
aS'shared_receipt_with_poi'
p5
aS'to_messages'
p6
aS'bonus'
p7
aS'deferral_payments'
p8
aS'deferred_income'
p9
aS'director_fees'
p10
aS'exercised_stock_options'
p11
aS'expenses'
p12
aS'loan_advances'
p13
aS'long_term_incentive'
p14
aS'other'
p15
aS'restricted_stock'
p16
aS'restricted_stock_deferred'
p17
aS'salary'
p18
aS'total_payments'
p19
aS'total_stock_value'
p20
aS'poi_ratio_messages'
p21
aS'total_payments_log'
p22
aS'salary_log'
p23
aS'bonus_log'
p24
aS'total_stock_value_log'
p25
aS'exercised_stock_options_log'
p26
aS'total_payments_squared'
p27
aS'total_stock_value_squared'
p28
aS'exercised_stock_options_squared'
p29
aS'salary_squared'
p30
a.